 cnt_traffic

 Timestamp is 485b490f (Fri Jun 20 14:07:11 2008)

 Preferred load address is 00400000

 Start         Length     Name                   Class
 0001:00000000 00042732H .text                   CODE
 0001:00042740 000013d0H .text$x                 CODE
 0002:00000000 0000184cH .rdata                  DATA
 0002:00001850 00000044H .rdata$r                DATA
 0002:00001898 00001918H .xdata$x                DATA
 0002:000031b0 0000413eH .edata                  DATA
 0003:00000000 00000004H .CRT$XCA                DATA
 0003:00000004 00000004H .CRT$XCL                DATA
 0003:00000008 00000014H .CRT$XCU                DATA
 0003:0000001c 00000004H .CRT$XCZ                DATA
 0003:00000020 00000004H .CRT$XIA                DATA
 0003:00000024 00000004H .CRT$XIZ                DATA
 0003:00000030 0000226cH .data                   DATA
 0003:000022a0 00000110H .bss                    DATA
 0004:00000000 000000dcH .idata$2                DATA
 0004:000000dc 00000014H .idata$3                DATA
 0004:000000f0 000004d0H .idata$4                DATA
 0004:000005c0 000004d0H .idata$5                DATA
 0004:00000a90 0000089cH .idata$6                DATA
 0005:00000000 000001d8H .rsrc$01                DATA
 0005:000001e0 00000bf0H .rsrc$02                DATA

  Address         Publics by Value              Rva+Base     Lib:Object

 0001:00000000       ?CreateObject@CAxisMediaControl@@SGPAVCObject@@XZ 00401000 f   axismediacontrol.obj
 0001:00000050       ?Serialize@CObject@@UAEXAAVCArchive@@@Z 00401050 f i axismediacontrol.obj
 0001:00000060       ??3CObject@@SGXPAX@Z       00401060 f i axismediacontrol.obj
 0001:00000070       ?AssertValid@CObject@@UBEXXZ 00401070 f i axismediacontrol.obj
 0001:00000080       ?Dump@CObject@@UBEXAAVCDumpContext@@@Z 00401080 f i axismediacontrol.obj
 0001:00000090       ?DoDataExchange@CWnd@@MAEXPAVCDataExchange@@@Z 00401090 f i axismediacontrol.obj
 0001:000000a0       ?BeginModalState@CWnd@@UAEXXZ 004010a0 f i axismediacontrol.obj
 0001:000000b0       ?EndModalState@CWnd@@UAEXXZ 004010b0 f i axismediacontrol.obj
 0001:000000c0       ?Create@CAxisMediaControl@@UAEHPBD0KABUtagRECT@@PAVCWnd@@IPAUCCreateContext@@@Z 004010c0 f i axismediacontrol.obj
 0001:000000f0       ??_GCAxisMediaControl@@UAEPAXI@Z 004010f0 f i axismediacontrol.obj
 0001:000000f0       ??_ECAxisMediaControl@@UAEPAXI@Z 004010f0 f i axismediacontrol.obj
 0001:00000110       ??1CAxisMediaControl@@UAE@XZ 00401110 f i axismediacontrol.obj
 0001:00000120       ?_GetBaseClass@CAxisMediaControl@@KGPAUCRuntimeClass@@XZ 00401120 f   axismediacontrol.obj
 0001:00000130       ?GetRuntimeClass@CAxisMediaControl@@UBEPAUCRuntimeClass@@XZ 00401130 f   axismediacontrol.obj
 0001:00000140       ?Play@CAxisMediaControl@@QAEXXZ 00401140 f   axismediacontrol.obj
 0001:00000160       ?Stop@CAxisMediaControl@@QAEXXZ 00401160 f   axismediacontrol.obj
 0001:00000180       ?TogglePause@CAxisMediaControl@@QAEXXZ 00401180 f   axismediacontrol.obj
 0001:000001a0       ?StartRecord@CAxisMediaControl@@QAEXPBD@Z 004011a0 f   axismediacontrol.obj
 0001:000001c0       ?StopRecord@CAxisMediaControl@@QAEXXZ 004011c0 f   axismediacontrol.obj
 0001:000001e0       ?GetCurrentImage@CAxisMediaControl@@QAEXJPAUtagVARIANT@@PAJ@Z 004011e0 f   axismediacontrol.obj
 0001:00000210       ?SaveCurrentImage@CAxisMediaControl@@QAEXJPBD@Z 00401210 f   axismediacontrol.obj
 0001:00000240       ?GetMPEG4VideoDecodingMode@CAxisMediaControl@@QAEJXZ 00401240 f   axismediacontrol.obj
 0001:00000260       ?SetMPEG4VideoDecodingMode@CAxisMediaControl@@QAEXJ@Z 00401260 f   axismediacontrol.obj
 0001:00000280       ?GetDisplayMessages@CAxisMediaControl@@QAEHXZ 00401280 f   axismediacontrol.obj
 0001:000002a0       ?SetDisplayMessages@CAxisMediaControl@@QAEXH@Z 004012a0 f   axismediacontrol.obj
 0001:000002c0       ?GetMPEG4VideoRenderer@CAxisMediaControl@@QAEJXZ 004012c0 f   axismediacontrol.obj
 0001:000002e0       ?SetMPEG4VideoRenderer@CAxisMediaControl@@QAEXJ@Z 004012e0 f   axismediacontrol.obj
 0001:00000300       ?GetEnableContextMenu@CAxisMediaControl@@QAEHXZ 00401300 f   axismediacontrol.obj
 0001:00000320       ?SetEnableContextMenu@CAxisMediaControl@@QAEXH@Z 00401320 f   axismediacontrol.obj
 0001:00000340       ?GetEnableRecording@CAxisMediaControl@@QAEJXZ 00401340 f   axismediacontrol.obj
 0001:00000360       ?SetEnableRecording@CAxisMediaControl@@QAEXJ@Z 00401360 f   axismediacontrol.obj
 0001:00000380       ?GetEnableReconnect@CAxisMediaControl@@QAEHXZ 00401380 f   axismediacontrol.obj
 0001:000003a0       ?SetEnableReconnect@CAxisMediaControl@@QAEXH@Z 004013a0 f   axismediacontrol.obj
 0001:000003c0       ?AudioTransmitStart@CAxisMediaControl@@QAEXXZ 004013c0 f   axismediacontrol.obj
 0001:000003e0       ?AudioReceiveStart@CAxisMediaControl@@QAEXXZ 004013e0 f   axismediacontrol.obj
 0001:00000400       ?AudioReceiveStop@CAxisMediaControl@@QAEXXZ 00401400 f   axismediacontrol.obj
 0001:00000420       ?AudioTransmitStop@CAxisMediaControl@@QAEXXZ 00401420 f   axismediacontrol.obj
 0001:00000440       ?GetMediaURL@CAxisMediaControl@@QAE?AVCString@@XZ 00401440 f   axismediacontrol.obj
 0001:000004d0       ?SetMediaURL@CAxisMediaControl@@QAEXPBD@Z 004014d0 f   axismediacontrol.obj
 0001:000004f0       ?GetAutoStart@CAxisMediaControl@@QAEHXZ 004014f0 f   axismediacontrol.obj
 0001:00000510       ?SetAutoStart@CAxisMediaControl@@QAEXH@Z 00401510 f   axismediacontrol.obj
 0001:00000530       ?GetUIMode@CAxisMediaControl@@QAE?AVCString@@XZ 00401530 f   axismediacontrol.obj
 0001:000005c0       ?SetUIMode@CAxisMediaControl@@QAEXPBD@Z 004015c0 f   axismediacontrol.obj
 0001:000005e0       ?GetMute@CAxisMediaControl@@QAEHXZ 004015e0 f   axismediacontrol.obj
 0001:00000600       ?SetMute@CAxisMediaControl@@QAEXH@Z 00401600 f   axismediacontrol.obj
 0001:00000620       ?GetVolume@CAxisMediaControl@@QAEJXZ 00401620 f   axismediacontrol.obj
 0001:00000640       ?SetVolume@CAxisMediaControl@@QAEXJ@Z 00401640 f   axismediacontrol.obj
 0001:00000660       ?GetMediaUsername@CAxisMediaControl@@QAE?AVCString@@XZ 00401660 f   axismediacontrol.obj
 0001:000006f0       ?SetMediaUsername@CAxisMediaControl@@QAEXPBD@Z 004016f0 f   axismediacontrol.obj
 0001:00000710       ?GetMediaPassword@CAxisMediaControl@@QAE?AVCString@@XZ 00401710 f   axismediacontrol.obj
 0001:000007a0       ?SetMediaPassword@CAxisMediaControl@@QAEXPBD@Z 004017a0 f   axismediacontrol.obj
 0001:000007c0       ?GetNetworkTimeout@CAxisMediaControl@@QAEJXZ 004017c0 f   axismediacontrol.obj
 0001:000007e0       ?SetNetworkTimeout@CAxisMediaControl@@QAEXJ@Z 004017e0 f   axismediacontrol.obj
 0001:00000800       ?GetMediaType@CAxisMediaControl@@QAE?AVCString@@XZ 00401800 f   axismediacontrol.obj
 0001:00000890       ?SetMediaType@CAxisMediaControl@@QAEXPBD@Z 00401890 f   axismediacontrol.obj
 0001:000008b0       ?GetFullScreen@CAxisMediaControl@@QAEHXZ 004018b0 f   axismediacontrol.obj
 0001:000008d0       ?SetFullScreen@CAxisMediaControl@@QAEXH@Z 004018d0 f   axismediacontrol.obj
 0001:000008f0       ?GetMediaFile@CAxisMediaControl@@QAE?AVCString@@XZ 004018f0 f   axismediacontrol.obj
 0001:00000980       ?SetMediaFile@CAxisMediaControl@@QAEXPBD@Z 00401980 f   axismediacontrol.obj
 0001:000009a0       ?GetCurrentPosition@CAxisMediaControl@@QAEJXZ 004019a0 f   axismediacontrol.obj
 0001:000009c0       ?SetCurrentPosition@CAxisMediaControl@@QAEXJ@Z 004019c0 f   axismediacontrol.obj
 0001:000009e0       ?GetDuration@CAxisMediaControl@@QAEJXZ 004019e0 f   axismediacontrol.obj
 0001:00000a00       ?GetFramesDrawn@CAxisMediaControl@@QAEJXZ 00401a00 f   axismediacontrol.obj
 0001:00000a20       ?GetStatus@CAxisMediaControl@@QAEJXZ 00401a20 f   axismediacontrol.obj
 0001:00000a40       ?GetStretchToFit@CAxisMediaControl@@QAEHXZ 00401a40 f   axismediacontrol.obj
 0001:00000a60       ?SetStretchToFit@CAxisMediaControl@@QAEXH@Z 00401a60 f   axismediacontrol.obj
 0001:00000a80       ?GetShowToolbar@CAxisMediaControl@@QAEHXZ 00401a80 f   axismediacontrol.obj
 0001:00000aa0       ?SetShowToolbar@CAxisMediaControl@@QAEXH@Z 00401aa0 f   axismediacontrol.obj
 0001:00000ac0       ?GetShowStatusBar@CAxisMediaControl@@QAEHXZ 00401ac0 f   axismediacontrol.obj
 0001:00000ae0       ?SetShowStatusBar@CAxisMediaControl@@QAEXH@Z 00401ae0 f   axismediacontrol.obj
 0001:00000b00       ?GetToolbarConfiguration@CAxisMediaControl@@QAE?AVCString@@XZ 00401b00 f   axismediacontrol.obj
 0001:00000b90       ?SetToolbarConfiguration@CAxisMediaControl@@QAEXPBD@Z 00401b90 f   axismediacontrol.obj
 0001:00000bb0       ?GetPTZControlURL@CAxisMediaControl@@QAE?AVCString@@XZ 00401bb0 f   axismediacontrol.obj
 0001:00000c40       ?SetPTZControlURL@CAxisMediaControl@@QAEXPBD@Z 00401c40 f   axismediacontrol.obj
 0001:00000c60       ?GetMPEG2VideoDecodingMode@CAxisMediaControl@@QAEJXZ 00401c60 f   axismediacontrol.obj
 0001:00000c80       ?SetMPEG2VideoDecodingMode@CAxisMediaControl@@QAEXJ@Z 00401c80 f   axismediacontrol.obj
 0001:00000ca0       ?GetMotionConfigURL@CAxisMediaControl@@QAE?AVCString@@XZ 00401ca0 f   axismediacontrol.obj
 0001:00000d30       ?SetMotionConfigURL@CAxisMediaControl@@QAEXPBD@Z 00401d30 f   axismediacontrol.obj
 0001:00000d50       ?GetMotionDataURL@CAxisMediaControl@@QAE?AVCString@@XZ 00401d50 f   axismediacontrol.obj
 0001:00000de0       ?SetMotionDataURL@CAxisMediaControl@@QAEXPBD@Z 00401de0 f   axismediacontrol.obj
 0001:00000e00       ?GetAudioConfigURL@CAxisMediaControl@@QAE?AVCString@@XZ 00401e00 f   axismediacontrol.obj
 0001:00000e90       ?SetAudioConfigURL@CAxisMediaControl@@QAEXPBD@Z 00401e90 f   axismediacontrol.obj
 0001:00000eb0       ?GetAudioReceiveURL@CAxisMediaControl@@QAE?AVCString@@XZ 00401eb0 f   axismediacontrol.obj
 0001:00000f40       ?SetAudioReceiveURL@CAxisMediaControl@@QAEXPBD@Z 00401f40 f   axismediacontrol.obj
 0001:00000f60       ?GetAudioTransmitURL@CAxisMediaControl@@QAE?AVCString@@XZ 00401f60 f   axismediacontrol.obj
 0001:00000ff0       ?SetAudioTransmitURL@CAxisMediaControl@@QAEXPBD@Z 00401ff0 f   axismediacontrol.obj
 0001:00001010       ?GetAudioFile@CAxisMediaControl@@QAE?AVCString@@XZ 00402010 f   axismediacontrol.obj
 0001:000010a0       ?SetAudioFile@CAxisMediaControl@@QAEXPBD@Z 004020a0 f   axismediacontrol.obj
 0001:000010c0       ?GetAudioTransmitMute@CAxisMediaControl@@QAEHXZ 004020c0 f   axismediacontrol.obj
 0001:000010e0       ?SetAudioTransmitMute@CAxisMediaControl@@QAEXH@Z 004020e0 f   axismediacontrol.obj
 0001:00001100       ?GetAudioTransmitVolume@CAxisMediaControl@@QAEJXZ 00402100 f   axismediacontrol.obj
 0001:00001120       ?SetAudioTransmitVolume@CAxisMediaControl@@QAEXJ@Z 00402120 f   axismediacontrol.obj
 0001:00001140       ?GetClarifyEnabled@CAxisMediaControl@@QAEHXZ 00402140 f   axismediacontrol.obj
 0001:00001160       ?SetClarifyEnabled@CAxisMediaControl@@QAEXH@Z 00402160 f   axismediacontrol.obj
 0001:00001180       ?GetClarifyLevel@CAxisMediaControl@@QAEJXZ 00402180 f   axismediacontrol.obj
 0001:000011a0       ?SetClarifyLevel@CAxisMediaControl@@QAEXJ@Z 004021a0 f   axismediacontrol.obj
 0001:000011c0       ?GetClarifyLicenseFile@CAxisMediaControl@@QAE?AVCString@@XZ 004021c0 f   axismediacontrol.obj
 0001:00001250       ?SetClarifyLicenseFile@CAxisMediaControl@@QAEXPBD@Z 00402250 f   axismediacontrol.obj
 0001:00001270       ?GetClarifyValidatorsLocation@CAxisMediaControl@@QAE?AVCString@@XZ 00402270 f   axismediacontrol.obj
 0001:00001300       ?SetClarifyValidatorsLocation@CAxisMediaControl@@QAEXPBD@Z 00402300 f   axismediacontrol.obj
 0001:00001320       ?StartRecordMedia@CAxisMediaControl@@QAEXPBDJ0@Z 00402320 f   axismediacontrol.obj
 0001:00001350       ?StopRecordMedia@CAxisMediaControl@@QAEXXZ 00402350 f   axismediacontrol.obj
 0001:00001370       ?StartTransmitMedia@CAxisMediaControl@@QAEXPBDJ@Z 00402370 f   axismediacontrol.obj
 0001:000013a0       ?StopTransmitMedia@CAxisMediaControl@@QAEXXZ 004023a0 f   axismediacontrol.obj
 0001:000013c0       ?GetSvgDataUrl@CAxisMediaControl@@QAE?AVCString@@XZ 004023c0 f   axismediacontrol.obj
 0001:00001450       ?SetSvgDataUrl@CAxisMediaControl@@QAEXPBD@Z 00402450 f   axismediacontrol.obj
 0001:00001470       ?GetJoystickConnected@CAxisMediaControl@@QAEHXZ 00402470 f   axismediacontrol.obj
 0001:00001490       ?SetImage@CAxisMediaControl@@QAEXPAUtagVARIANT@@PAJ@Z 00402490 f   axismediacontrol.obj
 0001:000014c0       ?SetReconnectionStrategy@CAxisMediaControl@@QAEXJJJJJJH@Z 004024c0 f   axismediacontrol.obj
 0001:00001500       ?GetEnableJoystick@CAxisMediaControl@@QAEHXZ 00402500 f   axismediacontrol.obj
 0001:00001520       ?SetEnableJoystick@CAxisMediaControl@@QAEXH@Z 00402520 f   axismediacontrol.obj
 0001:00001550       ?GetEnableAreaZoom@CAxisMediaControl@@QAEHXZ 00402550 f   axismediacontrol.obj
 0001:00001570       ?SetEnableAreaZoom@CAxisMediaControl@@QAEXH@Z 00402570 f   axismediacontrol.obj
 0001:000015a0       ?GetClientOverlay@CAxisMediaControl@@QAEJXZ 004025a0 f   axismediacontrol.obj
 0001:000015c0       ?SetClientOverlay@CAxisMediaControl@@QAEXJ@Z 004025c0 f   axismediacontrol.obj
 0001:000015f0       ??0CxFile@@QAE@XZ          004025f0 f i Calibration.obj
 0001:00001600       ??1CxFile@@UAE@XZ          00402600 f i Calibration.obj
 0001:00001610       ?PutC@CxFile@@UAE_NE@Z     00402610 f i Calibration.obj
 0001:00001630       ??0CxFile@@QAE@ABV0@@Z     00402630 f i Calibration.obj
 0001:00001640       ??4CxFile@@QAEAAV0@ABV0@@Z 00402640 f i Calibration.obj
 0001:00001650       ??_GCxFile@@UAEPAXI@Z      00402650 f i Calibration.obj
 0001:00001670       ??_ECxFile@@UAEPAXI@Z      00402670 f i Calibration.obj
 0001:000016d0       ??0CxIOFile@@QAE@PAU_iobuf@@@Z 004026d0 f i Calibration.obj
 0001:000016f0       ??1CxIOFile@@UAE@XZ        004026f0 f i Calibration.obj
 0001:00001720       ?Open@CxIOFile@@QAE_NPBD0@Z 00402720 f i Calibration.obj
 0001:00001760       ?Close@CxIOFile@@UAE_NXZ   00402760 f i Calibration.obj
 0001:00001790       ?Read@CxIOFile@@UAEIPAXII@Z 00402790 f i Calibration.obj
 0001:000017c0       ?Write@CxIOFile@@UAEIPBXII@Z 004027c0 f i Calibration.obj
 0001:000017f0       ?Seek@CxIOFile@@UAE_NJH@Z  004027f0 f i Calibration.obj
 0001:00001820       ?Tell@CxIOFile@@UAEJXZ     00402820 f i Calibration.obj
 0001:00001840       ?Size@CxIOFile@@UAEJXZ     00402840 f i Calibration.obj
 0001:00001890       ?Flush@CxIOFile@@UAE_NXZ   00402890 f i Calibration.obj
 0001:000018b0       ?Eof@CxIOFile@@UAE_NXZ     004028b0 f i Calibration.obj
 0001:000018d0       ?Error@CxIOFile@@UAEJXZ    004028d0 f i Calibration.obj
 0001:000018f0       ?PutC@CxIOFile@@UAE_NE@Z   004028f0 f i Calibration.obj
 0001:00001920       ?GetC@CxIOFile@@UAEJXZ     00402920 f i Calibration.obj
 0001:00001940       ??0CxIOFile@@QAE@ABV0@@Z   00402940 f i Calibration.obj
 0001:00001970       ??4CxIOFile@@QAEAAV0@ABV0@@Z 00402970 f i Calibration.obj
 0001:00001990       ??_FCxIOFile@@QAEXXZ       00402990 f i Calibration.obj
 0001:000019a0       ??_GCxIOFile@@UAEPAXI@Z    004029a0 f i Calibration.obj
 0001:000019c0       ??_ECxIOFile@@UAEPAXI@Z    004029c0 f i Calibration.obj
 0001:00001a20       ??0CxMemFile@@QAE@ABV0@@Z  00402a20 f i Calibration.obj
 0001:00001a60       ??4CxMemFile@@QAEAAV0@ABV0@@Z 00402a60 f i Calibration.obj
 0001:00001a90       ??_FCxMemFile@@QAEXXZ      00402a90 f i Calibration.obj
 0001:00001aa0       ??_GCxMemFile@@UAEPAXI@Z   00402aa0 f i Calibration.obj
 0001:00001ac0       ??_ECxMemFile@@UAEPAXI@Z   00402ac0 f i Calibration.obj
 0001:00001b20       ??1CxImage@@UAE@XZ         00402b20 f i Calibration.obj
 0001:00001b30       ??_FCxImage@@QAEXXZ        00402b30 f i Calibration.obj
 0001:00001b40       ??_OCxImage@@QAEXABV0@@Z   00402b40 f i Calibration.obj
 0001:00001b60       ??_GCxImage@@UAEPAXI@Z     00402b60 f i Calibration.obj
 0001:00001b90       ??_ECxImage@@UAEPAXI@Z     00402b90 f i Calibration.obj
 0001:00001bf0       ??0CCalibration@@QAE@PAVCWnd@@@Z 00402bf0 f   Calibration.obj
 0001:00001cd0       ??_ECStatic@@UAEPAXI@Z     00402cd0 f i Calibration.obj
 0001:00001cd0       ??_GCStatic@@UAEPAXI@Z     00402cd0 f i Calibration.obj
 0001:00001cf0       ??_ECButton@@UAEPAXI@Z     00402cf0 f i Calibration.obj
 0001:00001cf0       ??_GCButton@@UAEPAXI@Z     00402cf0 f i Calibration.obj
 0001:00001d10       ??_ECListCtrl@@UAEPAXI@Z   00402d10 f i Calibration.obj
 0001:00001d10       ??_GCListCtrl@@UAEPAXI@Z   00402d10 f i Calibration.obj
 0001:00001d30       ??_GCCalibration@@UAEPAXI@Z 00402d30 f i Calibration.obj
 0001:00001d30       ??_ECCalibration@@UAEPAXI@Z 00402d30 f i Calibration.obj
 0001:00001d50       ??_H@YGXPAXIHP6EX0@Z@Z     00402d50 f i Calibration.obj
 0001:00001d80       ??1CCalibration@@UAE@XZ    00402d80 f   Calibration.obj
 0001:00001e20       ?DoDataExchange@CCalibration@@MAEXPAVCDataExchange@@@Z 00402e20 f   Calibration.obj
 0001:00001e70       ?_GetBaseMessageMap@CCalibration@@KGPBUAFX_MSGMAP@@XZ 00402e70 f   Calibration.obj
 0001:00001e80       ?GetMessageMap@CCalibration@@MBEPBUAFX_MSGMAP@@XZ 00402e80 f   Calibration.obj
 0001:00001e90       ?OnInitDialog@CCalibration@@MAEHXZ 00402e90 f   Calibration.obj
 0001:00001fd0       ?OnLButtonDown@CCalibration@@IAEXIVCPoint@@@Z 00402fd0 f   Calibration.obj
 0001:00002170       ?OnPaint@CCalibration@@IAEXXZ 00403170 f   Calibration.obj
 0001:00002250       ?_GetBaseMessageMap@CCnt_trafficApp@@KGPBUAFX_MSGMAP@@XZ 00403250 f   cnt_traffic.obj
 0001:00002260       ?GetMessageMap@CCnt_trafficApp@@MBEPBUAFX_MSGMAP@@XZ 00403260 f   cnt_traffic.obj
 0001:00002270       ??0CCnt_trafficApp@@QAE@XZ 00403270 f   cnt_traffic.obj
 0001:00002290       ??_GCCnt_trafficApp@@UAEPAXI@Z 00403290 f i cnt_traffic.obj
 0001:00002290       ??_ECCnt_trafficApp@@UAEPAXI@Z 00403290 f i cnt_traffic.obj
 0001:000022b0       ??1CCnt_trafficApp@@UAE@XZ 004032b0 f i cnt_traffic.obj
 0001:000022f0       ?InitInstance@CCnt_trafficApp@@UAEHXZ 004032f0 f   cnt_traffic.obj
 0001:000023d0       ?MainThread@@YAIPAX@Z      004033d0 f   cnt_trafficDlg.obj
 0001:00002430       ?GarbageCollectionThread@@YAIPAX@Z 00403430 f   cnt_trafficDlg.obj
 0001:00002500       ??0CCnt_trafficDlg@@QAE@PAVCWnd@@@Z 00403500 f   cnt_trafficDlg.obj
 0001:00002680       ??_ECEdit@@UAEPAXI@Z       00403680 f i cnt_trafficDlg.obj
 0001:00002680       ??_GCEdit@@UAEPAXI@Z       00403680 f i cnt_trafficDlg.obj
 0001:000026a0       ??_ECCnt_trafficDlg@@UAEPAXI@Z 004036a0 f i cnt_trafficDlg.obj
 0001:000026a0       ??_GCCnt_trafficDlg@@UAEPAXI@Z 004036a0 f i cnt_trafficDlg.obj
 0001:000026c0       ??1CCnt_trafficDlg@@UAE@XZ 004036c0 f   cnt_trafficDlg.obj
 0001:000027e0       ?DoDataExchange@CCnt_trafficDlg@@MAEXPAVCDataExchange@@@Z 004037e0 f   cnt_trafficDlg.obj
 0001:000028b0       ?_GetBaseMessageMap@CCnt_trafficDlg@@KGPBUAFX_MSGMAP@@XZ 004038b0 f   cnt_trafficDlg.obj
 0001:000028c0       ?GetMessageMap@CCnt_trafficDlg@@MBEPBUAFX_MSGMAP@@XZ 004038c0 f   cnt_trafficDlg.obj
 0001:000028d0       ?OnInitDialog@CCnt_trafficDlg@@MAEHXZ 004038d0 f   cnt_trafficDlg.obj
 0001:00002b30       ?init@CCnt_trafficDlg@@QAEXXZ 00403b30 f   cnt_trafficDlg.obj
 0001:000035b0       ??1CException@@UAE@XZ      004045b0 f i cnt_trafficDlg.obj
 0001:000035c0       ??_GCObject@@UAEPAXI@Z     004045c0 f i cnt_trafficDlg.obj
 0001:000035c0       ??_ECObject@@UAEPAXI@Z     004045c0 f i cnt_trafficDlg.obj
 0001:000035e0       ??_ECFileException@@UAEPAXI@Z 004045e0 f i cnt_trafficDlg.obj
 0001:000035e0       ??_GCFileException@@UAEPAXI@Z 004045e0 f i cnt_trafficDlg.obj
 0001:00003600       ??1CFileException@@UAE@XZ  00404600 f i cnt_trafficDlg.obj
 0001:00003650       ?cleanUp@CCnt_trafficDlg@@AAEXXZ 00404650 f   cnt_trafficDlg.obj
 0001:00003a90       ?OnButtonOpen@CCnt_trafficDlg@@IAEXXZ 00404a90 f   cnt_trafficDlg.obj
 0001:00003ad0       ?OnButtonRun@CCnt_trafficDlg@@IAEXXZ 00404ad0 f   cnt_trafficDlg.obj
 0001:00003b50       ?SelectPath@CCnt_trafficDlg@@AAE_NXZ 00404b50 f   cnt_trafficDlg.obj
 0001:00003c00       ?InitializeBackground@CCnt_trafficDlg@@AAEXXZ 00404c00 f   cnt_trafficDlg.obj
 0001:00005e20       ?Run@CCnt_trafficDlg@@QAEXXZ 00406e20 f   cnt_trafficDlg.obj
 0001:00006cf0       ?cca@CCnt_trafficDlg@@AAE_NXZ 00407cf0 f   cnt_trafficDlg.obj
 0001:00007110       ??_ECOperadorBlob@@UAEPAXI@Z 00408110 f i cnt_trafficDlg.obj
 0001:00007110       ??_GCOperadorBlob@@UAEPAXI@Z 00408110 f i cnt_trafficDlg.obj
 0001:00007130       ??RCBlobGetArea@@UBENABVCBlob@@@Z 00408130 f i cnt_trafficDlg.obj
 0001:00007140       ?GetNom@CBlobGetArea@@UBEPBDXZ 00408140 f i cnt_trafficDlg.obj
 0001:00007150       ??RCBlobGetMean@@UBENABVCBlob@@@Z 00408150 f i cnt_trafficDlg.obj
 0001:00007160       ?GetNom@CBlobGetMean@@UBEPBDXZ 00408160 f i cnt_trafficDlg.obj
 0001:00007170       ??1CBlobGetMean@@UAE@XZ    00408170 f i cnt_trafficDlg.obj
 0001:00007180       ??1CBlobGetArea@@UAE@XZ    00408180 f i cnt_trafficDlg.obj
 0001:00007190       ??_GCBlobGetMean@@UAEPAXI@Z 00408190 f i cnt_trafficDlg.obj
 0001:00007190       ??_ECBlobGetMean@@UAEPAXI@Z 00408190 f i cnt_trafficDlg.obj
 0001:000071b0       ??_GCBlobGetArea@@UAEPAXI@Z 004081b0 f i cnt_trafficDlg.obj
 0001:000071b0       ??_ECBlobGetArea@@UAEPAXI@Z 004081b0 f i cnt_trafficDlg.obj
 0001:000071d0       ?split_blob@CCnt_trafficDlg@@AAEXXZ 004081d0 f   cnt_trafficDlg.obj
 0001:00007360       ?fit_kernel@CCnt_trafficDlg@@AAEXPAUCvPoint@@@Z 00408360 f   cnt_trafficDlg.obj
 0001:000075a0       ?hkmean@CCnt_trafficDlg@@AAEXPAUCvPoint@@0@Z 004085a0 f   cnt_trafficDlg.obj
 0001:00007640       ?addNewC@CCnt_trafficDlg@@AAE_NPAUCvPoint@@0@Z 00408640 f   cnt_trafficDlg.obj
 0001:000078f0       ?update_hk_C@CCnt_trafficDlg@@AAEXPAUCvPoint@@0@Z 004088f0 f   cnt_trafficDlg.obj
 0001:00007a90       ?comp_hk_error@CCnt_trafficDlg@@AAEMPAUCvPoint@@0@Z 00408a90 f   cnt_trafficDlg.obj
 0001:00007b30       ?drawBoundingBox@CCnt_trafficDlg@@AAEXXZ 00408b30 f   cnt_trafficDlg.obj
 0001:00007cc0       ?findCand_vehicles@CCnt_trafficDlg@@AAEXXZ 00408cc0 f   cnt_trafficDlg.obj
 0001:00007de0       ?get_kernel@CCnt_trafficDlg@@AAEXHPAH@Z 00408de0 f   cnt_trafficDlg.obj
 0001:00007ed0       ?update_kernel@CCnt_trafficDlg@@AAEXPAH0@Z 00408ed0 f   cnt_trafficDlg.obj
 0001:00008010       ?get_overlap_area@CCnt_trafficDlg@@AAEHPAH0@Z 00409010 f   cnt_trafficDlg.obj
 0001:00008150       ?chk_err@CCnt_trafficDlg@@AAE_NPAH0@Z 00409150 f   cnt_trafficDlg.obj
 0001:000081c0       ?drawBox@CCnt_trafficDlg@@AAEXPAH@Z 004091c0 f   cnt_trafficDlg.obj
 0001:00008330       ?merge_bbox@CCnt_trafficDlg@@AAEXPAH0@Z 00409330 f   cnt_trafficDlg.obj
 0001:00008450       ?save_new_record@CCnt_trafficDlg@@AAEXPAPAH@Z 00409450 f   cnt_trafficDlg.obj
 0001:000087d0       ?drawBoundingBox4@CCnt_trafficDlg@@AAEXXZ 004097d0 f   cnt_trafficDlg.obj
 0001:00008960       ?OnButtonSelectPoint@CCnt_trafficDlg@@IAEXXZ 00409960 f   cnt_trafficDlg.obj
 0001:00008b50       ?merge_process2@CCnt_trafficDlg@@AAEXXZ 00409b50 f   cnt_trafficDlg.obj
 0001:00008d80       ?delete_blobs@CCnt_trafficDlg@@AAEXXZ 00409d80 f   cnt_trafficDlg.obj
 0001:00008f80       ?get_bbox_size@CCnt_trafficDlg@@AAEHPAH@Z 00409f80 f   cnt_trafficDlg.obj
 0001:00008fb0       ?determineType@CCnt_trafficDlg@@AAEXXZ 00409fb0 f   cnt_trafficDlg.obj
 0001:000090d0       ?readROIfile@CCnt_trafficDlg@@AAEXXZ 0040a0d0 f   cnt_trafficDlg.obj
 0001:00009330       ?getParams@CCnt_trafficDlg@@AAEXXZ 0040a330 f   cnt_trafficDlg.obj
 0001:000097e0       ?OnButtonLive@CCnt_trafficDlg@@IAEXXZ 0040a7e0 f   cnt_trafficDlg.obj
 0001:00009a40       ?CreateFolder@CCnt_trafficDlg@@AAEXXZ 0040aa40 f   cnt_trafficDlg.obj
 0001:00009ad0       ?WriteLog@CCnt_trafficDlg@@AAEXPBD@Z 0040aad0 f   cnt_trafficDlg.obj
 0001:00009cb0       ?WriteFile@CCnt_trafficDlg@@AAEXPBD00@Z 0040acb0 f   cnt_trafficDlg.obj
 0001:00009f00       ?DestroyWindow@CCnt_trafficDlg@@UAEHXZ 0040af00 f   cnt_trafficDlg.obj
 0001:00009f20       ?OnButtonStop@CCnt_trafficDlg@@IAEXXZ 0040af20 f   cnt_trafficDlg.obj
 0001:00009f50       ?setCapturePath@CCnt_trafficDlg@@AAEXXZ 0040af50 f   cnt_trafficDlg.obj
 0001:0000a020       ?OnTimer@CCnt_trafficDlg@@IAEXI@Z 0040b020 f   cnt_trafficDlg.obj
 0001:0000a050       ?updateUpTime@CCnt_trafficDlg@@AAEXXZ 0040b050 f   cnt_trafficDlg.obj
 0001:0000a230       ?WriteStats@CCnt_trafficDlg@@AAEXPBD@Z 0040b230 f   cnt_trafficDlg.obj
 0001:0000a5d0       ?maintainDiskSpace@CCnt_trafficDlg@@QAEXXZ 0040b5d0 f   cnt_trafficDlg.obj
 0001:0000a650       ?getFreeDiskSpace@CCnt_trafficDlg@@AAEHABVCString@@AA_K@Z 0040b650 f   cnt_trafficDlg.obj
 0001:0000a710       ?deleteFirstFolder@CCnt_trafficDlg@@AAEXPAD@Z 0040b710 f   cnt_trafficDlg.obj
 0001:0000aa60       ?OnButtonChange@CCnt_trafficDlg@@IAEXXZ 0040ba60 f   cnt_trafficDlg.obj
 0001:0000aaf0       ?Q_Sort@CCnt_trafficDlg@@AAEXPAMHH@Z 0040baf0 f   cnt_trafficDlg.obj
 0001:0000abe0       ??0CTracking@@QAE@XZ       0040bbe0 f   tracking.obj
 0001:0000ac00       ??_GCTracking@@UAEPAXI@Z   0040bc00 f i tracking.obj
 0001:0000ac00       ??_ECTracking@@UAEPAXI@Z   0040bc00 f i tracking.obj
 0001:0000ac30       ??1CTracking@@UAE@XZ       0040bc30 f   tracking.obj
 0001:0000ac50       ?init@CTracking@@QAEXXZ    0040bc50 f   tracking.obj
 0001:0000ac90       ?run@CTracking@@QAEXPAUstructBlob@@_N@Z 0040bc90 f   tracking.obj
 0001:0000ae20       ?update_track@CTracking@@QAEXPAUstructBlob@@@Z 0040be20 f   tracking.obj
 0001:0000b5a0       ?get_unusedID@CTracking@@QAEHXZ 0040c5a0 f   tracking.obj
 0001:0000b5e0       ?init_track@CTracking@@QAEXPAUstructBlob@@@Z 0040c5e0 f   tracking.obj
 0001:0000b6e0       ?drawBoundingBox@CTracking@@QAEXPAUstructBlob@@@Z 0040c6e0 f   tracking.obj
 0001:0000ba30       ?giveVehicleCount@CTracking@@QAEXXZ 0040ca30 f   tracking.obj
 0001:0000bc00       ?get_overlap_area@CTracking@@AAEHPAH0@Z 0040cc00 f   tracking.obj
 0001:0000bcb0       ??0CxMemFile@@QAE@PAEK@Z   0040ccb0 f   cximage:xmemfile.obj
 0001:0000bce0       ??1CxMemFile@@UAE@XZ       0040cce0 f   cximage:xmemfile.obj
 0001:0000bd30       ?Close@CxMemFile@@UAE_NXZ  0040cd30 f   cximage:xmemfile.obj
 0001:0000bd60       ?Open@CxMemFile@@QAE_NXZ   0040cd60 f   cximage:xmemfile.obj
 0001:0000bda0       ?GetBuffer@CxMemFile@@QAEPAE_N@Z 0040cda0 f   cximage:xmemfile.obj
 0001:0000bdc0       ?Read@CxMemFile@@UAEIPAXII@Z 0040cdc0 f   cximage:xmemfile.obj
 0001:0000be40       ?Write@CxMemFile@@UAEIPBXII@Z 0040ce40 f   cximage:xmemfile.obj
 0001:0000bed0       ?Seek@CxMemFile@@UAE_NJH@Z 0040ced0 f   cximage:xmemfile.obj
 0001:0000bf10       ?Tell@CxMemFile@@UAEJXZ    0040cf10 f   cximage:xmemfile.obj
 0001:0000bf20       ?Size@CxMemFile@@UAEJXZ    0040cf20 f   cximage:xmemfile.obj
 0001:0000bf30       ?Flush@CxMemFile@@UAE_NXZ  0040cf30 f   cximage:xmemfile.obj
 0001:0000bf40       ?Eof@CxMemFile@@UAE_NXZ    0040cf40 f   cximage:xmemfile.obj
 0001:0000bf60       ?Error@CxMemFile@@UAEJXZ   0040cf60 f   cximage:xmemfile.obj
 0001:0000bf80       ?PutC@CxMemFile@@UAE_NE@Z  0040cf80 f   cximage:xmemfile.obj
 0001:0000bfd0       ?GetC@CxMemFile@@UAEJXZ    0040cfd0 f   cximage:xmemfile.obj
 0001:0000c000       ?Alloc@CxMemFile@@IAEXK@Z  0040d000 f   cximage:xmemfile.obj
 0001:0000c060       ?Free@CxMemFile@@IAEXXZ    0040d060 f   cximage:xmemfile.obj
 0001:0000c070       ?Startup@CxImage@@IAEXK@Z  0040d070 f   cximage:xImage.obj
 0001:0000c0e0       ??0CxImage@@QAE@K@Z        0040d0e0 f   cximage:xImage.obj
 0001:0000c100       ?Destroy@CxImage@@QAE_NXZ  0040d100 f   cximage:xImage.obj
 0001:0000c1b0       ??0CxImage@@QAE@KKKK@Z     0040d1b0 f   cximage:xImage.obj
 0001:0000c1f0       ??0CxImage@@QAE@ABV0@_N11@Z 0040d1f0 f   cximage:xImage.obj
 0001:0000c230       ?Copy@CxImage@@QAEXABV1@_N11@Z 0040d230 f   cximage:xImage.obj
 0001:0000c370       ?CopyInfo@CxImage@@IAEXABV1@@Z 0040d370 f   cximage:xImage.obj
 0001:0000c390       ??4CxImage@@QAEAAV0@ABV0@@Z 0040d390 f   cximage:xImage.obj
 0001:0000c3b0       ?Create@CxImage@@QAEPAXKKKK@Z 0040d3b0 f   cximage:xImage.obj
 0001:0000c550       ?GetBits@CxImage@@QAEPAEK@Z 0040d550 f   cximage:xImage.obj
 0001:0000c5b0       ?GetSize@CxImage@@QAEJXZ   0040d5b0 f   cximage:xImage.obj
 0001:0000c5d0       ?IsInside@CxImage@@QAE_NJJ@Z 0040d5d0 f   cximage:xImage.obj
 0001:0000c600       ?Clear@CxImage@@QAEXE@Z    0040d600 f   cximage:xImage.obj
 0001:0000c670       ?Transfer@CxImage@@QAE_NAAV1@@Z 0040d670 f   cximage:xImage.obj
 0001:0000c700       ?Ghost@CxImage@@IAEXPAV1@@Z 0040d700 f   cximage:xImage.obj
 0001:0000c760       ?Bitfield2RGB@CxImage@@IAEXPAEGGGE@Z 0040d760 f   cximage:xImage.obj
 0001:0000c9a0       ?CreateFromArray@CxImage@@QAE_NPAEKKKK_N@Z 0040d9a0 f   cximage:xImage.obj
 0001:0000caf0       ?CreateFromMatrix@CxImage@@QAE_NPAPAEKKKK_N@Z 0040daf0 f   cximage:xImage.obj
 0001:0000cc30       ?CompareColors@CxImage@@KAHPBX0@Z 0040dc30 f   cximage:xImage.obj
 0001:0000ccb0       ?FreeMemory@CxImage@@QAEXPAX@Z 0040dcb0 f   cximage:xImage.obj
 0001:0000ccd0       ?GetTransColor@CxImage@@QAE?AUtagRGBQUAD@@XZ 0040dcd0 f   cximage:ximainfo.obj
 0001:0000cd10       ?GetTransIndex@CxImage@@QBEJXZ 0040dd10 f   cximage:ximainfo.obj
 0001:0000cd20       ?SetTransIndex@CxImage@@QAEXJ@Z 0040dd20 f   cximage:ximainfo.obj
 0001:0000cd30       ?SetTransColor@CxImage@@QAEXUtagRGBQUAD@@@Z 0040dd30 f   cximage:ximainfo.obj
 0001:0000cd50       ?IsTransparent@CxImage@@QBE_NXZ 0040dd50 f   cximage:ximainfo.obj
 0001:0000cd60       ?IsIndexed@CxImage@@QBE_NXZ 0040dd60 f   cximage:ximainfo.obj
 0001:0000cd70       ?GetColorType@CxImage@@QAEEXZ 0040dd70 f   cximage:ximainfo.obj
 0001:0000cd90       ?GetXDPI@CxImage@@QBEJXZ   0040dd90 f   cximage:ximainfo.obj
 0001:0000cda0       ?GetYDPI@CxImage@@QBEJXZ   0040dda0 f   cximage:ximainfo.obj
 0001:0000cdb0       ?SetXDPI@CxImage@@QAEXJ@Z  0040ddb0 f   cximage:ximainfo.obj
 0001:0000ce00       ?SetYDPI@CxImage@@QAEXJ@Z  0040de00 f   cximage:ximainfo.obj
 0001:0000ce50       ?GetFlags@CxImage@@QBEKXZ  0040de50 f   cximage:ximainfo.obj
 0001:0000ce60       ?SetFlags@CxImage@@QAEXK_N@Z 0040de60 f   cximage:ximainfo.obj
 0001:0000ce90       ?GetCodecOption@CxImage@@QAEKK@Z 0040de90 f   cximage:ximainfo.obj
 0001:0000cec0       ?SetCodecOption@CxImage@@QAE_NKK@Z 0040dec0 f   cximage:ximainfo.obj
 0001:0000cef0       ?GetDIB@CxImage@@QBEPAXXZ  0040def0 f   cximage:ximainfo.obj
 0001:0000cf00       ?GetHeight@CxImage@@QBEKXZ 0040df00 f   cximage:ximainfo.obj
 0001:0000cf10       ?GetWidth@CxImage@@QBEKXZ  0040df10 f   cximage:ximainfo.obj
 0001:0000cf20       ?GetEffWidth@CxImage@@QBEKXZ 0040df20 f   cximage:ximainfo.obj
 0001:0000cf30       ?GetNumColors@CxImage@@QBEKXZ 0040df30 f   cximage:ximainfo.obj
 0001:0000cf40       ?GetBpp@CxImage@@QBEGXZ    0040df40 f   cximage:ximainfo.obj
 0001:0000cf50       ?GetType@CxImage@@QBEKXZ   0040df50 f   cximage:ximainfo.obj
 0001:0000cf60       ?GetFrameDelay@CxImage@@QBEKXZ 0040df60 f   cximage:ximainfo.obj
 0001:0000cf70       ?SetFrameDelay@CxImage@@QAEXK@Z 0040df70 f   cximage:ximainfo.obj
 0001:0000cf80       ?GetOffset@CxImage@@QAEXPAJ0@Z 0040df80 f   cximage:ximainfo.obj
 0001:0000cfa0       ?SetOffset@CxImage@@QAEXJJ@Z 0040dfa0 f   cximage:ximainfo.obj
 0001:0000cfc0       ?GetJpegQuality@CxImage@@QBEEXZ 0040dfc0 f   cximage:ximainfo.obj
 0001:0000cfd0       ?SetJpegQuality@CxImage@@QAEXE@Z 0040dfd0 f   cximage:ximainfo.obj
 0001:0000cfe0       ?GetJpegScale@CxImage@@QBEEXZ 0040dfe0 f   cximage:ximainfo.obj
 0001:0000cff0       ?SetJpegScale@CxImage@@QAEXE@Z 0040dff0 f   cximage:ximainfo.obj
 0001:0000d000       ?GetProgress@CxImage@@QBEJXZ 0040e000 f   cximage:ximainfo.obj
 0001:0000d010       ?GetEscape@CxImage@@QBEJXZ 0040e010 f   cximage:ximainfo.obj
 0001:0000d020       ?SetProgress@CxImage@@QAEXJ@Z 0040e020 f   cximage:ximainfo.obj
 0001:0000d030       ?SetEscape@CxImage@@QAEXJ@Z 0040e030 f   cximage:ximainfo.obj
 0001:0000d040       ?IsValid@CxImage@@QBE_NXZ  0040e040 f   cximage:ximainfo.obj
 0001:0000d050       ?IsEnabled@CxImage@@QBE_NXZ 0040e050 f   cximage:ximainfo.obj
 0001:0000d060       ?Enable@CxImage@@QAEX_N@Z  0040e060 f   cximage:ximainfo.obj
 0001:0000d070       ?GetNumFrames@CxImage@@QBEJXZ 0040e070 f   cximage:ximainfo.obj
 0001:0000d080       ?GetFrame@CxImage@@QBEJXZ  0040e080 f   cximage:ximainfo.obj
 0001:0000d090       ?SetFrame@CxImage@@QAEXJ@Z 0040e090 f   cximage:ximainfo.obj
 0001:0000d0a0       ?GetLastError@CxImage@@QAEPBDXZ 0040e0a0 f   cximage:ximainfo.obj
 0001:0000d0b0       ?GetVersionNumber@CxImage@@QAE?BMXZ 0040e0b0 f   cximage:ximainfo.obj
 0001:0000d0c0       ?GetVersion@CxImage@@QAEPBDXZ 0040e0c0 f   cximage:ximainfo.obj
 0001:0000d0d0       ?CopyToHandle@CxImage@@QAEPAXXZ 0040e0d0 f   cximage:ximawnd.obj
 0001:0000d130       ?CreateFromHANDLE@CxImage@@QAE_NPAX@Z 0040e130 f   cximage:ximawnd.obj
 0001:0000d7d0       ?MakeBitmap@CxImage@@QAEPAUHBITMAP__@@PAUHDC__@@@Z 0040e7d0 f   cximage:ximawnd.obj
 0001:0000d870       ?CreateFromHBITMAP@CxImage@@QAE_NPAUHBITMAP__@@PAUHPALETTE__@@@Z 0040e870 f   cximage:ximawnd.obj
 0001:0000d950       ?CreateFromHICON@CxImage@@QAE_NPAUHICON__@@@Z 0040e950 f   cximage:ximawnd.obj
 0001:0000da40       ?Draw@CxImage@@QAEJPAUHDC__@@ABUtagRECT@@PAU3@_N@Z 0040ea40 f   cximage:ximawnd.obj
 0001:0000da80       ?Draw@CxImage@@QAEJPAUHDC__@@JJJJPAUtagRECT@@_N@Z 0040ea80 f   cximage:ximawnd.obj
 0001:0000e6e0       ?Draw2@CxImage@@QAEJPAUHDC__@@ABUtagRECT@@@Z 0040f6e0 f   cximage:ximawnd.obj
 0001:0000e710       ?Draw2@CxImage@@QAEJPAUHDC__@@JJJJ@Z 0040f710 f   cximage:ximawnd.obj
 0001:0000e9c0       ?Stretch@CxImage@@QAEJPAUHDC__@@ABUtagRECT@@K@Z 0040f9c0 f   cximage:ximawnd.obj
 0001:0000e9f0       ?Stretch@CxImage@@QAEJPAUHDC__@@JJJJK@Z 0040f9f0 f   cximage:ximawnd.obj
 0001:0000ea60       ?Tile@CxImage@@QAEJPAUHDC__@@PAUtagRECT@@@Z 0040fa60 f   cximage:ximawnd.obj
 0001:0000eb60       ?DrawString@CxImage@@QAEJPAUHDC__@@JJPBDUtagRGBQUAD@@1JJEE_N@Z 0040fb60 f   cximage:ximawnd.obj
 0001:0000ee60       ?DrawStringEx@CxImage@@QAEJPAUHDC__@@JJPAUtagCxTextInfo@1@_N@Z 0040fe60 f   cximage:ximawnd.obj
 0001:0000f520       ?InitTextInfo@CxImage@@QAEXPAUtagCxTextInfo@1@@Z 00410520 f   cximage:ximawnd.obj
 0001:0000f5f0       ?GetPaletteSize@CxImage@@QAEKXZ 004105f0 f   cximage:ximapal.obj
 0001:0000f600       ?SetPaletteColor@CxImage@@QAEXEEEEE@Z 00410600 f   cximage:ximapal.obj
 0001:0000f650       ?SetPaletteColor@CxImage@@QAEXEUtagRGBQUAD@@@Z 00410650 f   cximage:ximapal.obj
 0001:0000f6a0       ?SetPaletteColor@CxImage@@QAEXEK@Z 004106a0 f   cximage:ximapal.obj
 0001:0000f6f0       ?GetPalette@CxImage@@QBEPAUtagRGBQUAD@@XZ 004106f0 f   cximage:ximapal.obj
 0001:0000f710       ?GetPaletteColor@CxImage@@QAE?AUtagRGBQUAD@@E@Z 00410710 f   cximage:ximapal.obj
 0001:0000f780       ?GetPixelIndex@CxImage@@QAEEJJ@Z 00410780 f   cximage:ximapal.obj
 0001:0000f890       ?BlindGetPixelIndex@CxImage@@IAEEJJ@Z 00410890 f   cximage:ximapal.obj
 0001:0000f950       ?GetPixelColor@CxImage@@QAE?AUtagRGBQUAD@@JJ_N@Z 00410950 f   cximage:ximapal.obj
 0001:0000fa60       ?BlindGetPixelColor@CxImage@@IAE?AUtagRGBQUAD@@JJ@Z 00410a60 f   cximage:ximapal.obj
 0001:0000faf0       ?GetPixelGray@CxImage@@QAEEJJ@Z 00410af0 f   cximage:ximapal.obj
 0001:0000fb60       ?SetPixelIndex@CxImage@@QAEXJJE@Z 00410b60 f   cximage:ximapal.obj
 0001:0000fc70       ?SetPixelColor@CxImage@@QAEXJJK@Z 00410c70 f   cximage:ximapal.obj
 0001:0000fca0       ?SetPixelColor@CxImage@@QAEXJJUtagRGBQUAD@@_N@Z 00410ca0 f   cximage:ximapal.obj
 0001:0000fd30       ?BlendPixelColor@CxImage@@QAEXJJUtagRGBQUAD@@M_N@Z 00410d30 f   cximage:ximapal.obj
 0001:0000fe70       ?GetNearestIndex@CxImage@@QAEEUtagRGBQUAD@@@Z 00410e70 f   cximage:ximapal.obj
 0001:0000ffb0       ?RGBtoBGR@CxImage@@IAEXPAEH@Z 00410fb0 f   cximage:ximapal.obj
 0001:00010000       ?RGBtoRGBQUAD@CxImage@@SA?AUtagRGBQUAD@@K@Z 00411000 f   cximage:ximapal.obj
 0001:00010030       ?RGBQUADtoRGB@CxImage@@SAKUtagRGBQUAD@@@Z 00411030 f   cximage:ximapal.obj
 0001:00010060       ?GetPaletteColor@CxImage@@QAE_NEPAE00@Z 00411060 f   cximage:ximapal.obj
 0001:000100a0       ?SetPalette@CxImage@@QAEXKPAE00@Z 004110a0 f   cximage:ximapal.obj
 0001:00010130       ?SetPalette@CxImage@@QAEXPAUrgb_color@1@K@Z 00411130 f   cximage:ximapal.obj
 0001:00010190       ?SetPalette@CxImage@@QAEXPAUtagRGBQUAD@@K@Z 00411190 f   cximage:ximapal.obj
 0001:000101f0       ?SetGrayPalette@CxImage@@QAEXXZ 004111f0 f   cximage:ximapal.obj
 0001:00010240       ?BlendPalette@CxImage@@QAEXKJ@Z 00411240 f   cximage:ximapal.obj
 0001:00010320       ?IsGrayScale@CxImage@@QAE_NXZ 00411320 f   cximage:ximapal.obj
 0001:00010370       ?SwapIndex@CxImage@@QAEXEE@Z 00411370 f   cximage:ximapal.obj
 0001:00010430       ?IsTransparent@CxImage@@QAE_NJJ@Z 00411430 f   cximage:ximapal.obj
 0001:000104d0       ?IsSamePalette@CxImage@@QAE_NAAV1@_N@Z 004114d0 f   cximage:ximapal.obj
 0001:00010570       ?GetClrImportant@CxImage@@QBEKXZ 00411570 f   cximage:ximapal.obj
 0001:00010580       ?SetClrImportant@CxImage@@QAEXK@Z 00411580 f   cximage:ximapal.obj
 0001:000105e0       ?BlindGetPixelPointer@CxImage@@IAEPAXJJ@Z 004115e0 f   cximage:ximapal.obj
 0001:00010610       ?DrawLine@CxImage@@QAEXHHHHK@Z 00411610 f   cximage:ximapal.obj
 0001:00010650       ?DrawLine@CxImage@@QAEXHHHHUtagRGBQUAD@@_N@Z 00411650 f   cximage:ximapal.obj
 0001:00010770       ?SetStdPalette@CxImage@@QAEXXZ 00411770 f   cximage:ximapal.obj
 0001:000125f0       ?Decode@CxImageJPG@@QAE_NPAU_iobuf@@@Z 004135f0 f i cximage:ximaenc.obj
 0001:00012670       ?Encode@CxImageJPG@@QAE_NPAU_iobuf@@@Z 00413670 f i cximage:ximaenc.obj
 0001:000126f0       ?DecodeExif@CxImageJPG@@QAE_NPAU_iobuf@@@Z 004136f0 f i cximage:ximaenc.obj
 0001:00012770       ??4CxExifInfo@CxImageJPG@@QAEAAV01@ABV01@@Z 00413770 f i cximage:ximaenc.obj
 0001:00012790       ??_FCxExifInfo@CxImageJPG@@QAEXXZ 00413790 f i cximage:ximaenc.obj
 0001:000127a0       ??0CxImageJPG@@QAE@ABV0@@Z 004137a0 f i cximage:ximaenc.obj
 0001:00012820       ??4CxImageJPG@@QAEAAV0@ABV0@@Z 00413820 f i cximage:ximaenc.obj
 0001:000128a0       ??_GCxImageJPG@@UAEPAXI@Z  004138a0 f i cximage:ximaenc.obj
 0001:000128c0       ??_ECxImageJPG@@UAEPAXI@Z  004138c0 f i cximage:ximaenc.obj
 0001:00012920       ??0CxImageGIF@@QAE@XZ      00413920 f i cximage:ximaenc.obj
 0001:00012950       ?Decode@CxImageGIF@@QAE_NPAU_iobuf@@@Z 00413950 f i cximage:ximaenc.obj
 0001:000129d0       ?Encode@CxImageGIF@@QAE_NPAU_iobuf@@@Z 004139d0 f i cximage:ximaenc.obj
 0001:00012a50       ?Encode@CxImageGIF@@QAE_NPAU_iobuf@@PAPAVCxImage@@H_N@Z 00413a50 f i cximage:ximaenc.obj
 0001:00012ae0       ??0CxImageGIF@@QAE@ABV0@@Z 00413ae0 f i cximage:ximaenc.obj
 0001:00012d60       ??4CxImageGIF@@QAEAAV0@ABV0@@Z 00413d60 f i cximage:ximaenc.obj
 0001:00013030       ??1CxImageGIF@@UAE@XZ      00414030 f i cximage:ximaenc.obj
 0001:00013040       ??_GCxImageGIF@@UAEPAXI@Z  00414040 f i cximage:ximaenc.obj
 0001:00013060       ??_ECxImageGIF@@UAEPAXI@Z  00414060 f i cximage:ximaenc.obj
 0001:000130c0       ?EncodeSafeCheck@CxImage@@IAE_NPAVCxFile@@@Z 004140c0 f   cximage:ximaenc.obj
 0001:00013130       ?Save@CxImage@@QAE_NPBDK@Z 00414130 f   cximage:ximaenc.obj
 0001:00013180       ?Encode@CxImage@@QAE_NPAU_iobuf@@K@Z 00414180 f   cximage:ximaenc.obj
 0001:00013210       ?Encode@CxImage@@QAE_NAAPAEAAJK@Z 00414210 f   cximage:ximaenc.obj
 0001:00013300       ?Encode@CxImage@@QAE_NPAVCxFile@@K@Z 00414300 f   cximage:ximaenc.obj
 0001:000135b0       ??_GCxImageBMP@@UAEPAXI@Z  004145b0 f i cximage:ximaenc.obj
 0001:000135b0       ??_ECxImageBMP@@UAEPAXI@Z  004145b0 f i cximage:ximaenc.obj
 0001:000135d0       ??1CxImageBMP@@UAE@XZ      004145d0 f i cximage:ximaenc.obj
 0001:000135e0       ?Encode@CxImage@@QAE_NPAU_iobuf@@PAPAV1@HK@Z 004145e0 f   cximage:ximaenc.obj
 0001:00013670       ?Encode@CxImage@@QAE_NPAVCxFile@@PAPAV1@HK@Z 00414670 f   cximage:ximaenc.obj
 0001:000137b0       ?Encode2RGBA@CxImage@@QAE_NAAPAEAAJ@Z 004147b0 f   cximage:ximaenc.obj
 0001:000138a0       ?Encode2RGBA@CxImage@@QAE_NPAVCxFile@@@Z 004148a0 f   cximage:ximaenc.obj
 0001:00013940       ?Load@CxImage@@QAE_NPBDK@Z 00414940 f   cximage:ximaenc.obj
 0001:00013a60       ?LoadResource@CxImage@@QAE_NPAUHRSRC__@@KPAUHINSTANCE__@@@Z 00414a60 f   cximage:ximaenc.obj
 0001:00013b20       ??0CxImage@@QAE@PBDK@Z     00414b20 f   cximage:ximaenc.obj
 0001:00013b50       ??0CxImage@@QAE@PAU_iobuf@@K@Z 00414b50 f   cximage:ximaenc.obj
 0001:00013b80       ??0CxImage@@QAE@PAVCxFile@@K@Z 00414b80 f   cximage:ximaenc.obj
 0001:00013bb0       ??0CxImage@@QAE@PAEKK@Z    00414bb0 f   cximage:ximaenc.obj
 0001:00013c30       ?Decode@CxImage@@QAE_NPAEKK@Z 00414c30 f   cximage:ximaenc.obj
 0001:00013ca0       ?Decode@CxImage@@QAE_NPAU_iobuf@@K@Z 00414ca0 f   cximage:ximaenc.obj
 0001:00013d30       ?Decode@CxImage@@QAE_NPAVCxFile@@K@Z 00414d30 f   cximage:ximaenc.obj
 0001:00014200       ?AlphaGetMax@CxImage@@QBEEXZ 00415200 f   cximage:ximalpha.obj
 0001:00014210       ?AlphaSetMax@CxImage@@QAEXE@Z 00415210 f   cximage:ximalpha.obj
 0001:00014220       ?AlphaIsValid@CxImage@@QAE_NXZ 00415220 f   cximage:ximalpha.obj
 0001:00014230       ?AlphaPaletteEnable@CxImage@@QAEX_N@Z 00415230 f   cximage:ximalpha.obj
 0001:00014240       ?AlphaPaletteIsEnabled@CxImage@@QAE_NXZ 00415240 f   cximage:ximalpha.obj
 0001:00014250       ?AlphaClear@CxImage@@QAEXXZ 00415250 f   cximage:ximalpha.obj
 0001:00014280       ?AlphaSet@CxImage@@QAEXE@Z 00415280 f   cximage:ximalpha.obj
 0001:000142c0       ?AlphaCreate@CxImage@@QAEXXZ 004152c0 f   cximage:ximalpha.obj
 0001:00014310       ?AlphaDelete@CxImage@@QAEXXZ 00415310 f   cximage:ximalpha.obj
 0001:00014340       ?AlphaInvert@CxImage@@QAEXXZ 00415340 f   cximage:ximalpha.obj
 0001:00014370       ?AlphaCopy@CxImage@@QAE_NAAV1@@Z 00415370 f   cximage:ximalpha.obj
 0001:00014400       ?AlphaSet@CxImage@@QAE_NAAV1@@Z 00415400 f   cximage:ximalpha.obj
 0001:000144c0       ?AlphaSet@CxImage@@QAEXJJE@Z 004154c0 f   cximage:ximalpha.obj
 0001:00014500       ?AlphaGet@CxImage@@QAEEJJ@Z 00415500 f   cximage:ximalpha.obj
 0001:00014550       ?AlphaGetPointer@CxImage@@QAEPAEJJ@Z 00415550 f   cximage:ximalpha.obj
 0001:00014590       ?BlindAlphaGet@CxImage@@IAEEJJ@Z 00415590 f   cximage:ximalpha.obj
 0001:000145b0       ?AlphaPaletteClear@CxImage@@QAEXXZ 004155b0 f   cximage:ximalpha.obj
 0001:00014600       ?AlphaPaletteIsValid@CxImage@@QAE_NXZ 00415600 f   cximage:ximalpha.obj
 0001:00014650       ?AlphaStrip@CxImage@@QAEXXZ 00415650 f   cximage:ximalpha.obj
 0001:000149f0       ?AlphaFlip@CxImage@@QAE_NXZ 004159f0 f   cximage:ximalpha.obj
 0001:00014aa0       ?AlphaMirror@CxImage@@QAE_NXZ 00415aa0 f   cximage:ximalpha.obj
 0001:00014b50       ?AlphaSplit@CxImage@@QAE_NPAV1@@Z 00415b50 f   cximage:ximalpha.obj
 0001:00014c60       ?AlphaPaletteSplit@CxImage@@QAE_NPAV1@@Z 00415c60 f   cximage:ximalpha.obj
 0001:00014d70       ?SelectionIsValid@CxImage@@QAE_NXZ 00415d70 f   cximage:ximasel.obj
 0001:00014d80       ?SelectionGetBox@CxImage@@QAEXAAUtagRECT@@@Z 00415d80 f   cximage:ximasel.obj
 0001:00014db0       ?SelectionClear@CxImage@@QAE_NXZ 00415db0 f   cximage:ximasel.obj
 0001:00014e10       ?SelectionCreate@CxImage@@QAE_NXZ 00415e10 f   cximage:ximasel.obj
 0001:00014e40       ?SelectionDelete@CxImage@@QAE_NXZ 00415e40 f   cximage:ximasel.obj
 0001:00014e90       ?SelectionIsInside@CxImage@@QAE_NJJ@Z 00415e90 f   cximage:ximasel.obj
 0001:00014ee0       ?SelectionAddRect@CxImage@@QAE_NUtagRECT@@@Z 00415ee0 f   cximage:ximasel.obj
 0001:00015080       ?SelectionAddEllipse@CxImage@@QAE_NUtagRECT@@@Z 00416080 f   cximage:ximasel.obj
 0001:00015370       ?SelectionInvert@CxImage@@QAE_NXZ 00416370 f   cximage:ximasel.obj
 0001:000153a0       ?SelectionCopy@CxImage@@QAE_NAAV1@@Z 004163a0 f   cximage:ximasel.obj
 0001:00015450       ?SelectionAddPolygon@CxImage@@QAE_NPAUtagPOINT@@J@Z 00416450 f   cximage:ximasel.obj
 0001:00015b70       ?SelectionAddColor@CxImage@@QAE_NUtagRGBQUAD@@@Z 00416b70 f   cximage:ximasel.obj
 0001:00015c90       ?SelectionAddPixel@CxImage@@QAE_NHH@Z 00416c90 f   cximage:ximasel.obj
 0001:00015cf0       ?SelectionSplit@CxImage@@QAE_NPAV1@@Z 00416cf0 f   cximage:ximasel.obj
 0001:00015e00       ?SelectionToHRGN@CxImage@@QAE_NAAPAUHRGN__@@@Z 00416e00 f   cximage:ximasel.obj
 0001:00015ee0       ??4CxPoint2@@QAEAAV0@ABV0@@Z 00416ee0 f i cximage:ximatran.obj
 0001:00015f00       ??4CxRect2@@QAEAAV0@ABV0@@Z 00416f00 f i cximage:ximatran.obj
 0001:00015f30       ?GrayScale@CxImage@@QAE_NXZ 00416f30 f   cximage:ximatran.obj
 0001:000162d0       ?Flip@CxImage@@QAE_NXZ     004172d0 f   cximage:ximatran.obj
 0001:000163f0       ?Mirror@CxImage@@QAE_NXZ   004173f0 f   cximage:ximatran.obj
 0001:000165d0       ?RotateLeft@CxImage@@QAE_NPAV1@@Z 004175d0 f   cximage:ximatran.obj
 0001:00016a60       ?RotateRight@CxImage@@QAE_NPAV1@@Z 00417a60 f   cximage:ximatran.obj
 0001:00016ef0       ?Negative@CxImage@@QAE_NXZ 00417ef0 f   cximage:ximatran.obj
 0001:00017120       ?Rotate@CxImage@@QAE_NMPAV1@@Z 00418120 f   cximage:ximatran.obj
 0001:000176a0       ?Rotate2@CxImage@@QAE_NMPAV1@W4InterpolationMethod@1@W4OverflowMethod@1@PAUtagRGBQUAD@@_N4@Z 004186a0 f   cximage:ximatran.obj
 0001:000180f0       ?Rotate180@CxImage@@QAE_NPAV1@@Z 004190f0 f   cximage:ximatran.obj
 0001:000182c0       ?Resample@CxImage@@QAE_NJJHPAV1@@Z 004192c0 f   cximage:ximatran.obj
 0001:000190e0       ?Resample2@CxImage@@QAE_NJJW4InterpolationMethod@1@W4OverflowMethod@1@QAV1@_N@Z 0041a0e0 f   cximage:ximatran.obj
 0001:00019550       ?DecreaseBpp@CxImage@@QAE_NK_NPAUtagRGBQUAD@@K@Z 0041a550 f   cximage:ximatran.obj
 0001:00019a70       ?IncreaseBpp@CxImage@@QAE_NK@Z 0041aa70 f   cximage:ximatran.obj
 0001:00019e70       ?Dither@CxImage@@QAE_NJ@Z  0041ae70 f   cximage:ximatran.obj
 0001:0001b420       ?CropRotatedRectangle@CxImage@@QAE_NJJJJMPAV1@@Z 0041c420 f   cximage:ximatran.obj
 0001:0001b680       ?Crop@CxImage@@QAE_NABUtagRECT@@PAV1@@Z 0041c680 f   cximage:ximatran.obj
 0001:0001b6a0       ?Crop@CxImage@@QAE_NJJJJPAV1@@Z 0041c6a0 f   cximage:ximatran.obj
 0001:0001ba80       ?Skew@CxImage@@QAE_NMMJJ_N@Z 0041ca80 f   cximage:ximatran.obj
 0001:0001bd20       ?Expand@CxImage@@QAE_NJJJJUtagRGBQUAD@@PAV1@@Z 0041cd20 f   cximage:ximatran.obj
 0001:0001c0e0       ?Expand@CxImage@@QAE_NJJUtagRGBQUAD@@PAV1@@Z 0041d0e0 f   cximage:ximatran.obj
 0001:0001c140       ?Thumbnail@CxImage@@QAE_NJJUtagRGBQUAD@@PAV1@@Z 0041d140 f   cximage:ximatran.obj
 0001:0001c2c0       ?CircleTransform@CxImage@@QAE_NHJM@Z 0041d2c0 f   cximage:ximatran.obj
 0001:0001c680       ?QIShrink@CxImage@@QAE_NJJQAV1@@Z 0041d680 f   cximage:ximatran.obj
 0001:0001cc00       ?OverflowCoordinates@CxImage@@QAEXAAJ0W4OverflowMethod@1@@Z 0041dc00 f   cximage:ximaint.obj
 0001:0001ccf0       ?OverflowCoordinates@CxImage@@QAEXAAM0W4OverflowMethod@1@@Z 0041dcf0 f   cximage:ximaint.obj
 0001:0001cec0       ?GetPixelColorWithOverflow@CxImage@@QAE?AUtagRGBQUAD@@JJW4OverflowMethod@1@QAU2@@Z 0041dec0 f   cximage:ximaint.obj
 0001:0001cff0       ?GetPixelColorInterpolated@CxImage@@QAE?AUtagRGBQUAD@@MMW4InterpolationMethod@1@W4OverflowMethod@1@QAU2@@Z 0041dff0 f   cximage:ximaint.obj
 0001:0001e890       ?AddAveragingCont@CxImage@@IAEXABUtagRGBQUAD@@MAAM111@Z 0041f890 f   cximage:ximaint.obj
 0001:0001e900       ?GetAreaColorInterpolated@CxImage@@QAE?AUtagRGBQUAD@@MMMMW4InterpolationMethod@1@W4OverflowMethod@1@QAU2@@Z 0041f900 f   cximage:ximaint.obj
 0001:0001f1b0       ?KernelBSpline@CxImage@@SAMM@Z 004201b0 f   cximage:ximaint.obj
 0001:0001f2b0       ?KernelLinear@CxImage@@SAMM@Z 004202b0 f   cximage:ximaint.obj
 0001:0001f300       ?KernelCubic@CxImage@@SAMM@Z 00420300 f   cximage:ximaint.obj
 0001:0001f370       ?KernelGeneralizedCubic@CxImage@@SAMMM@Z 00420370 f   cximage:ximaint.obj
 0001:0001f400       ?KernelLanczosSinc@CxImage@@SAMMM@Z 00420400 f   cximage:ximaint.obj
 0001:0001f460       ?KernelBox@CxImage@@SAMM@Z 00420460 f   cximage:ximaint.obj
 0001:0001f490       ?KernelHermite@CxImage@@SAMM@Z 00420490 f   cximage:ximaint.obj
 0001:0001f500       ?KernelHamming@CxImage@@SAMM@Z 00420500 f   cximage:ximaint.obj
 0001:0001f580       ?KernelSinc@CxImage@@SAMM@Z 00420580 f   cximage:ximaint.obj
 0001:0001f5b0       ?KernelBlackman@CxImage@@SAMM@Z 004205b0 f   cximage:ximaint.obj
 0001:0001f5f0       ?KernelBessel_J1@CxImage@@SAMM@Z 004205f0 f   cximage:ximaint.obj
 0001:0001f640       ?KernelBessel_P1@CxImage@@SAMM@Z 00420640 f   cximage:ximaint.obj
 0001:0001f690       ?KernelBessel_Q1@CxImage@@SAMM@Z 00420690 f   cximage:ximaint.obj
 0001:0001f6e0       ?KernelBessel_Order1@CxImage@@SAMM@Z 004206e0 f   cximage:ximaint.obj
 0001:0001f7f0       ?KernelBessel@CxImage@@SAMM@Z 004207f0 f   cximage:ximaint.obj
 0001:0001f830       ?KernelGaussian@CxImage@@SAMM@Z 00420830 f   cximage:ximaint.obj
 0001:0001f860       ?KernelQuadratic@CxImage@@SAMM@Z 00420860 f   cximage:ximaint.obj
 0001:0001f8e0       ?KernelMitchell@CxImage@@SAMM@Z 004208e0 f   cximage:ximaint.obj
 0001:0001f9c0       ?KernelCatrom@CxImage@@SAMM@Z 004209c0 f   cximage:ximaint.obj
 0001:0001fab0       ??0CxImageJPG@@QAE@XZ      00420ab0 f   cximage:ximajpg.obj
 0001:0001fae0       ??1CxImageJPG@@UAE@XZ      00420ae0 f   cximage:ximajpg.obj
 0001:0001fb50       ?DecodeExif@CxImageJPG@@QAE_NPAVCxFile@@@Z 00420b50 f   cximage:ximajpg.obj
 0001:0001fc10       ?Decode@CxImageJPG@@QAE_NPAVCxFile@@@Z 00420c10 f   cximage:ximajpg.obj
 0001:000202a0       ??1CxFileJpg@CxImageJPG@@QAE@XZ 004212a0 f i cximage:ximajpg.obj
 0001:000202b0       ?InitDestination@CxFileJpg@CxImageJPG@@SAXPAUjpeg_compress_struct@@@Z 004212b0 f i cximage:ximajpg.obj
 0001:000202d0       ?EmptyOutputBuffer@CxFileJpg@CxImageJPG@@SAEPAUjpeg_compress_struct@@@Z 004212d0 f i cximage:ximajpg.obj
 0001:00020320       ?TermDestination@CxFileJpg@CxImageJPG@@SAXPAUjpeg_compress_struct@@@Z 00421320 f i cximage:ximajpg.obj
 0001:00020380       ?InitSource@CxFileJpg@CxImageJPG@@SAXPAUjpeg_decompress_struct@@@Z 00421380 f i cximage:ximajpg.obj
 0001:000203a0       ?FillInputBuffer@CxFileJpg@CxImageJPG@@SAEPAUjpeg_decompress_struct@@@Z 004213a0 f i cximage:ximajpg.obj
 0001:00020420       ?SkipInputData@CxFileJpg@CxImageJPG@@SAXPAUjpeg_decompress_struct@@J@Z 00421420 f i cximage:ximajpg.obj
 0001:000204e0       ?TermSource@CxFileJpg@CxImageJPG@@SAXPAUjpeg_decompress_struct@@@Z 004214e0 f i cximage:ximajpg.obj
 0001:00020520       ?Encode@CxImageJPG@@QAE_NPAVCxFile@@@Z 00421520 f   cximage:ximajpg.obj
 0001:00020990       ??0CxExifInfo@CxImageJPG@@QAE@PAUtag_ExifInfo@1@@Z 00421990 f   cximage:ximaexif.obj
 0001:00020a00       ??1CxExifInfo@CxImageJPG@@QAE@XZ 00421a00 f   cximage:ximaexif.obj
 0001:00020a50       ?DecodeExif@CxExifInfo@CxImageJPG@@QAE_NPAVCxFile@@H@Z 00421a50 f   cximage:ximaexif.obj
 0001:00020ed0       ?process_EXIF@CxExifInfo@CxImageJPG@@IAE_NPAEI@Z 00421ed0 f   cximage:ximaexif.obj
 0001:00021020       ?Get16m@CxExifInfo@CxImageJPG@@IAEHPAX@Z 00422020 f   cximage:ximaexif.obj
 0001:00021030       ?Get16u@CxExifInfo@CxImageJPG@@IAEHPAX@Z 00422030 f   cximage:ximaexif.obj
 0001:00021060       ?Get32s@CxExifInfo@CxImageJPG@@IAEJPAX@Z 00422060 f   cximage:ximaexif.obj
 0001:000210c0       ?Get32u@CxExifInfo@CxImageJPG@@IAEKPAX@Z 004220c0 f   cximage:ximaexif.obj
 0001:000210d0       ?ProcessExifDir@CxExifInfo@CxImageJPG@@IAE_NPAE0IQAUtag_ExifInfo@2@QAPAE@Z 004220d0 f   cximage:ximaexif.obj
 0001:000219e0       ?ConvertAnyFormat@CxExifInfo@CxImageJPG@@IAENPAXH@Z 004229e0 f   cximage:ximaexif.obj
 0001:00021b50       ?process_COM@CxExifInfo@CxImageJPG@@IAEXPBEH@Z 00422b50 f   cximage:ximaexif.obj
 0001:00021c10       ?process_SOFn@CxExifInfo@CxImageJPG@@IAEXPBEH@Z 00422c10 f   cximage:ximaexif.obj
 0001:00021c70       ?EncodeExif@CxExifInfo@CxImageJPG@@QAE_NPAVCxFile@@@Z 00422c70 f   cximage:ximaexif.obj
 0001:00021d60       ?DiscardAllButExif@CxExifInfo@CxImageJPG@@QAEXXZ 00422d60 f   cximage:ximaexif.obj
 0001:00021e70       ?FindSection@CxExifInfo@CxImageJPG@@IAEPAXH@Z 00422e70 f   cximage:ximaexif.obj
 0001:00021eb0       ?Decode@CxImageGIF@@QAE_NPAVCxFile@@@Z 00422eb0 f   cximage:ximagif.obj
 0001:000226a0       ?DecodeExtension@CxImageGIF@@IAE_NPAVCxFile@@@Z 004236a0 f   cximage:ximagif.obj
 0001:000228b0       ?get_byte@CxImageGIF@@IAEHPAVCxFile@@@Z 004238b0 f   cximage:ximagif.obj
 0001:00022930       ?out_line@CxImageGIF@@IAEHPAVCImageIterator@@PAEH@Z 00423930 f   cximage:ximagif.obj
 0001:00022b70       ?Encode@CxImageGIF@@QAE_NPAVCxFile@@@Z 00423b70 f   cximage:ximagif.obj
 0001:00022bd0       ?Encode@CxImageGIF@@QAE_NPAVCxFile@@PAPAVCxImage@@H_N@Z 00423bd0 f   cximage:ximagif.obj
 0001:00022dd0       ?EncodeHeader@CxImageGIF@@IAEXPAVCxFile@@@Z 00423dd0 f   cximage:ximagif.obj
 0001:00022e90       ?EncodeExtension@CxImageGIF@@IAEXPAVCxFile@@@Z 00423e90 f   cximage:ximagif.obj
 0001:00022f20       ?EncodeLoopExtension@CxImageGIF@@IAEXPAVCxFile@@@Z 00423f20 f   cximage:ximagif.obj
 0001:00022f90       ?EncodeBody@CxImageGIF@@IAEXPAVCxFile@@_N@Z 00423f90 f   cximage:ximagif.obj
 0001:000230e0       ?EncodeComment@CxImageGIF@@IAEXPAVCxFile@@@Z 004240e0 f   cximage:ximagif.obj
 0001:00023150       ?EncodeRGB@CxImageGIF@@IAE_NPAVCxFile@@@Z 00424150 f   cximage:ximagif.obj
 0001:000233b0       ?GifNextPixel@CxImageGIF@@IAEHXZ 004243b0 f   cximage:ximagif.obj
 0001:00023410       ?Putword@CxImageGIF@@IAEXHPAVCxFile@@@Z 00424410 f   cximage:ximagif.obj
 0001:00023440       ?compressNONE@CxImageGIF@@IAEXHPAVCxFile@@@Z 00424440 f   cximage:ximagif.obj
 0001:00023540       ?compressLZW@CxImageGIF@@IAEXHPAVCxFile@@@Z 00424540 f   cximage:ximagif.obj
 0001:00023710       ?output@CxImageGIF@@IAEXF@Z 00424710 f   cximage:ximagif.obj
 0001:000238b0       ?cl_hash@CxImageGIF@@IAEXJ@Z 004248b0 f   cximage:ximagif.obj
 0001:00023910       ?char_out@CxImageGIF@@IAEXH@Z 00424910 f   cximage:ximagif.obj
 0001:00023940       ?flush_char@CxImageGIF@@IAEXXZ 00424940 f   cximage:ximagif.obj
 0001:00023990       ?init_exp@CxImageGIF@@IAEFF@Z 00424990 f   cximage:ximagif.obj
 0001:00023a20       ?get_next_code@CxImageGIF@@IAEFPAVCxFile@@@Z 00424a20 f   cximage:ximagif.obj
 0001:00023bb0       ?decoder@CxImageGIF@@IAEFPAVCxFile@@PAVCImageIterator@@FAAH@Z 00424bb0 f   cximage:ximagif.obj
 0001:00023eb0       ?get_num_frames@CxImageGIF@@IAEHPAVCxFile@@PAUtag_TabCol@1@PAUtag_dscgif@1@@Z 00424eb0 f   cximage:ximagif.obj
 0001:000241e0       ?seek_next_image@CxImageGIF@@IAEJPAVCxFile@@J@Z 004251e0 f   cximage:ximagif.obj
 0001:00024250       ?SetDisposalMethod@CxImageGIF@@QAEXH@Z 00425250 f   cximage:ximagif.obj
 0001:00024260       ?GetDisposalMethod@CxImageGIF@@QAEJXZ 00425260 f   cximage:ximagif.obj
 0001:00024270       ?SetLoops@CxImageGIF@@QAEXH@Z 00425270 f   cximage:ximagif.obj
 0001:00024280       ?GetLoops@CxImageGIF@@QAEJXZ 00425280 f   cximage:ximagif.obj
 0001:00024290       ?SetComment@CxImageGIF@@QAEXPBD@Z 00425290 f   cximage:ximagif.obj
 0001:000242c0       ?GetComment@CxImageGIF@@QAEXPAD@Z 004252c0 f   cximage:ximagif.obj
 0001:000242f0       ?GifMix@CxImageGIF@@IAEXAAVCxImage@@AAUtag_image@1@@Z 004252f0 f   cximage:ximagif.obj
 0001:00024400       ?rle_clear@CxImageGIF@@IAEXPAUtag_RLE@1@@Z 00425400 f   cximage:ximagif.obj
 0001:00024430       ?rle_flush@CxImageGIF@@IAEXPAUtag_RLE@1@@Z 00425430 f   cximage:ximagif.obj
 0001:000244a0       ?rle_output_plain@CxImageGIF@@IAEXHPAUtag_RLE@1@@Z 004254a0 f   cximage:ximagif.obj
 0001:00024500       ?rle_flush_fromclear@CxImageGIF@@IAEXHPAUtag_RLE@1@@Z 00425500 f   cximage:ximagif.obj
 0001:000245a0       ?rle_reset_out_clear@CxImageGIF@@IAEXPAUtag_RLE@1@@Z 004255a0 f   cximage:ximagif.obj
 0001:000245d0       ?rle_flush_withtable@CxImageGIF@@IAEXHPAUtag_RLE@1@@Z 004255d0 f   cximage:ximagif.obj
 0001:000246f0       ?rle_compute_triangle_count@CxImageGIF@@IAEIII@Z 004256f0 f   cximage:ximagif.obj
 0001:00024760       ?rle_isqrt@CxImageGIF@@IAEII@Z 00425760 f   cximage:ximagif.obj
 0001:000247a0       ?rle_flush_clearorrep@CxImageGIF@@IAEXHPAUtag_RLE@1@@Z 004257a0 f   cximage:ximagif.obj
 0001:00024800       ?rle_write_block@CxImageGIF@@IAEXPAUtag_RLE@1@@Z 00425800 f   cximage:ximagif.obj
 0001:00024850       ?rle_block_out@CxImageGIF@@IAEXEPAUtag_RLE@1@@Z 00425850 f   cximage:ximagif.obj
 0001:00024890       ?rle_block_flush@CxImageGIF@@IAEXPAUtag_RLE@1@@Z 00425890 f   cximage:ximagif.obj
 0001:000248b0       ?rle_output@CxImageGIF@@IAEXHPAUtag_RLE@1@@Z 004258b0 f   cximage:ximagif.obj
 0001:00024910       ?rle_output_flush@CxImageGIF@@IAEXPAUtag_RLE@1@@Z 00425910 f   cximage:ximagif.obj
 0001:00024940       ?compressRLE@CxImageGIF@@IAEXHPAVCxFile@@@Z 00425940 f   cximage:ximagif.obj
 0001:00024a50       ?Encode@CxImageBMP@@QAE_NPAVCxFile@@@Z 00425a50 f   cximage:ximabmp.obj
 0001:00024af0       ?Decode@CxImageBMP@@QAE_NPAVCxFile@@@Z 00425af0 f   cximage:ximabmp.obj
 0001:00025440       ?DibReadBitmapInfo@CxImageBMP@@IAE_NPAVCxFile@@PAUtagBITMAPINFOHEADER@@@Z 00426440 f   cximage:ximabmp.obj
 0001:000255a0       ??0CxPoint2@@QAE@XZ        004265a0 f   cximage:ximath.obj
 0001:000255b0       ??0CxPoint2@@QAE@MM@Z      004265b0 f   cximage:ximath.obj
 0001:000255d0       ??0CxPoint2@@QAE@ABV0@@Z   004265d0 f   cximage:ximath.obj
 0001:000255f0       ?Distance@CxPoint2@@QAEMV1@@Z 004265f0 f   cximage:ximath.obj
 0001:00025610       ?Distance@CxPoint2@@QAEMMM@Z 00426610 f   cximage:ximath.obj
 0001:00025630       ??0CxRect2@@QAE@XZ         00426630 f   cximage:ximath.obj
 0001:00025650       ??0CxRect2@@QAE@MMMM@Z     00426650 f   cximage:ximath.obj
 0001:00025690       ??0CxRect2@@QAE@ABV0@@Z    00426690 f   cximage:ximath.obj
 0001:000256d0       ?Surface@CxRect2@@QBEMXZ   004266d0 f   cximage:ximath.obj
 0001:000256e0       ?CrossSection@CxRect2@@QBE?AV1@ABV1@@Z 004266e0 f   cximage:ximath.obj
 0001:000257b0       ?Center@CxRect2@@QBE?AVCxPoint2@@XZ 004267b0 f   cximage:ximath.obj
 0001:000257f0       ?Width@CxRect2@@QBEMXZ     004267f0 f   cximage:ximath.obj
 0001:00025800       ?Height@CxRect2@@QBEMXZ    00426800 f   cximage:ximath.obj
 0001:00025810       _jpeg_CreateDecompress     00426810 f   Jpeg:Jdapimin.obj
 0001:000258f0       _jpeg_destroy_decompress   004268f0 f   Jpeg:Jdapimin.obj
 0001:00025900       _jpeg_abort_decompress     00426900 f   Jpeg:Jdapimin.obj
 0001:00025910       _jpeg_read_header          00426910 f   Jpeg:Jdapimin.obj
 0001:00025980       _jpeg_consume_input        00426980 f   Jpeg:Jdapimin.obj
 0001:00025be0       _jpeg_input_complete       00426be0 f   Jpeg:Jdapimin.obj
 0001:00025c30       _jpeg_has_multiple_scans   00426c30 f   Jpeg:Jdapimin.obj
 0001:00025c80       _jpeg_finish_decompress    00426c80 f   Jpeg:Jdapimin.obj
 0001:00025d40       _jpeg_start_decompress     00426d40 f   Jpeg:Jdapistd.obj
 0001:00025ef0       _jpeg_read_scanlines       00426ef0 f   Jpeg:Jdapistd.obj
 0001:00025f90       _jpeg_read_raw_data        00426f90 f   Jpeg:Jdapistd.obj
 0001:00026050       _jpeg_start_output         00427050 f   Jpeg:Jdapistd.obj
 0001:000260c0       _jpeg_finish_output        004270c0 f   Jpeg:Jdapistd.obj
 0001:00026160       _jpeg_calc_output_dimensions 00427160 f   Jpeg:Jdmaster.obj
 0001:00026410       _jpeg_new_colormap         00427410 f   Jpeg:Jdmaster.obj
 0001:00026480       _jinit_master_decompress   00427480 f   Jpeg:Jdmaster.obj
 0001:000268b0       _jpeg_resync_to_restart    004278b0 f   Jpeg:Jdmarker.obj
 0001:00026ac0       _jinit_marker_reader       00427ac0 f   Jpeg:Jdmarker.obj
 0001:00028310       _jpeg_save_markers         00429310 f   Jpeg:Jdmarker.obj
 0001:00028680       _jpeg_set_marker_processor 00429680 f   Jpeg:Jdmarker.obj
 0001:000286d0       _jpeg_std_error            004296d0 f   Jpeg:Jerror.obj
 0001:00028890       _jpeg_CreateCompress       00429890 f   Jpeg:Jcapimin.obj
 0001:00028960       _jpeg_destroy_compress     00429960 f   Jpeg:Jcapimin.obj
 0001:00028970       _jpeg_abort_compress       00429970 f   Jpeg:Jcapimin.obj
 0001:00028980       _jpeg_suppress_tables      00429980 f   Jpeg:Jcapimin.obj
 0001:000289d0       _jpeg_finish_compress      004299d0 f   Jpeg:Jcapimin.obj
 0001:00028ae0       _jpeg_write_marker         00429ae0 f   Jpeg:Jcapimin.obj
 0001:00028b60       _jpeg_write_m_header       00429b60 f   Jpeg:Jcapimin.obj
 0001:00028bc0       _jpeg_write_m_byte         00429bc0 f   Jpeg:Jcapimin.obj
 0001:00028be0       _jpeg_write_tables         00429be0 f   Jpeg:Jcapimin.obj
 0001:00028c30       _jpeg_start_compress       00429c30 f   Jpeg:Jcapistd.obj
 0001:00028cb0       _jpeg_write_scanlines      00429cb0 f   Jpeg:Jcapistd.obj
 0001:00028d80       _jpeg_write_raw_data       00429d80 f   Jpeg:Jcapistd.obj
 0001:00028e50       _jpeg_add_quant_table      00429e50 f   Jpeg:Jcparam.obj
 0001:00028f30       _jpeg_set_linear_quality   00429f30 f   Jpeg:Jcparam.obj
 0001:00028f70       _jpeg_quality_scaling      00429f70 f   Jpeg:Jcparam.obj
 0001:00028fb0       _jpeg_set_quality          00429fb0 f   Jpeg:Jcparam.obj
 0001:00028fd0       _jpeg_set_defaults         00429fd0 f   Jpeg:Jcparam.obj
 0001:000291d0       _jpeg_default_colorspace   0042a1d0 f   Jpeg:Jcparam.obj
 0001:00029250       _jpeg_set_colorspace       0042a250 f   Jpeg:Jcparam.obj
 0001:00029550       _jpeg_simple_progression   0042a550 f   Jpeg:Jcparam.obj
 0001:00029800       _jinit_input_controller    0042a800 f   Jpeg:Jdinput.obj
 0001:00029e00       _jinit_memory_mgr          0042ae00 f   Jpeg:Jmemmgr.obj
 0001:0002aa20       _jpeg_abort                0042ba20 f   Jpeg:Jcomapi.obj
 0001:0002aa60       _jpeg_destroy              0042ba60 f   Jpeg:Jcomapi.obj
 0001:0002aa80       _jpeg_alloc_quant_table    0042ba80 f   Jpeg:Jcomapi.obj
 0001:0002aaa0       _jpeg_alloc_huff_table     0042baa0 f   Jpeg:Jcomapi.obj
 0001:0002aac0       _jdiv_round_up             0042bac0 f   Jpeg:Jutils.obj
 0001:0002aad0       _jround_up                 0042bad0 f   Jpeg:Jutils.obj
 0001:0002aaf0       _jcopy_sample_rows         0042baf0 f   Jpeg:Jutils.obj
 0001:0002ab40       _jcopy_block_row           0042bb40 f   Jpeg:Jutils.obj
 0001:0002ab70       _jzero_far                 0042bb70 f   Jpeg:Jutils.obj
 0001:0002ab90       _jinit_d_main_controller   0042bb90 f   Jpeg:Jdmainct.obj
 0001:0002b270       _jinit_d_coef_controller   0042c270 f   Jpeg:Jdcoefct.obj
 0001:0002c220       _jpeg_make_d_derived_tbl   0042d220 f   Jpeg:Jdhuff.obj
 0001:0002c500       _jpeg_fill_bit_buffer      0042d500 f   Jpeg:Jdhuff.obj
 0001:0002c620       _jpeg_huff_decode          0042d620 f   Jpeg:Jdhuff.obj
 0001:0002c710       _jinit_huff_decoder        0042d710 f   Jpeg:Jdhuff.obj
 0001:0002cd60       _jpeg_reset_huff_decode    0042dd60 f   Jpeg:Jdhuff.obj
 0001:0002cdb0       _jinit_phuff_decoder       0042ddb0 f   Jpeg:Jdphuff.obj
 0001:0002db10       _jinit_inverse_dct         0042eb10 f   Jpeg:Jddctmgr.obj
 0001:0002ddd0       _jinit_d_post_controller   0042edd0 f   Jpeg:Jdpostct.obj
 0001:0002e140       _jinit_upsampler           0042f140 f   Jpeg:Jdsample.obj
 0001:0002e8c0       _jinit_color_deconverter   0042f8c0 f   Jpeg:Jdcolor.obj
 0001:0002ef30       _jinit_merged_upsampler    0042ff30 f   Jpeg:Jdmerge.obj
 0001:0002f520       _jinit_2pass_quantizer     00430520 f   Jpeg:Jquant2.obj
 0001:00030920       _jinit_1pass_quantizer     00431920 f   Jpeg:Jquant1.obj
 0001:00031570       _jinit_marker_writer       00432570 f   Jpeg:Jcmarker.obj
 0001:00031e60       _jinit_compress_master     00432e60 f   Jpeg:Jcinit.obj
 0001:00031f20       _jpeg_get_small            00432f20 f   Jpeg:Jmemnobs.obj
 0001:00031f30       _jpeg_free_small           00432f30 f   Jpeg:Jmemnobs.obj
 0001:00031f40       _jpeg_get_large            00432f40 f   Jpeg:Jmemnobs.obj
 0001:00031f50       _jpeg_free_large           00432f50 f   Jpeg:Jmemnobs.obj
 0001:00031f60       _jpeg_mem_available        00432f60 f   Jpeg:Jmemnobs.obj
 0001:00031f70       _jpeg_open_backing_store   00432f70 f   Jpeg:Jmemnobs.obj
 0001:00031f90       _jpeg_mem_init             00432f90 f   Jpeg:Jmemnobs.obj
 0001:00031fa0       _jpeg_mem_term             00432fa0 f   Jpeg:Jmemnobs.obj
 0001:00031fb0       _jpeg_idct_islow           00432fb0 f   Jpeg:Jidctint.obj
 0001:000325a0       _jpeg_idct_ifast           004335a0 f   Jpeg:Jidctfst.obj
 0001:00032a60       _jpeg_idct_float           00433a60 f   Jpeg:Jidctflt.obj
 0001:00032ea0       _jpeg_idct_4x4             00433ea0 f   Jpeg:Jidctred.obj
 0001:00033250       _jpeg_idct_2x2             00434250 f   Jpeg:Jidctred.obj
 0001:00033480       _jpeg_idct_1x1             00434480 f   Jpeg:Jidctred.obj
 0001:000334c0       _jinit_c_main_controller   004344c0 f   Jpeg:Jcmainct.obj
 0001:00033650       _jinit_c_coef_controller   00434650 f   Jpeg:Jccoefct.obj
 0001:00033ec0       _jpeg_make_c_derived_tbl   00434ec0 f   Jpeg:Jchuff.obj
 0001:000340d0       _jpeg_gen_optimal_table    004350d0 f   Jpeg:Jchuff.obj
 0001:00034300       _jinit_huff_encoder        00435300 f   Jpeg:Jchuff.obj
 0001:00034c60       _jinit_phuff_encoder       00435c60 f   Jpeg:Jcphuff.obj
 0001:00035870       _jinit_forward_dct         00436870 f   Jpeg:Jcdctmgr.obj
 0001:00035e40       _jinit_c_prep_controller   00436e40 f   Jpeg:Jcprepct.obj
 0001:00036400       _jinit_downsampler         00437400 f   Jpeg:Jcsample.obj
 0001:00036e20       _jinit_color_converter     00437e20 f   Jpeg:Jccolor.obj
 0001:000375b0       _jinit_c_master_control    004385b0 f   Jpeg:Jcmaster.obj
 0001:00038110       _jpeg_fdct_islow           00439110 f   Jpeg:Jfdctint.obj
 0001:00038510       _jpeg_fdct_ifast           00439510 f   Jpeg:Jfdctfst.obj
 0001:00038760       _jpeg_fdct_float           00439760 f   Jpeg:Jfdctflt.obj
 0001:000389d0       ??0CBlob@@QAE@XZ           004399d0 f   cvblobslib:blob.obj
 0001:00038b1d       ??0CBlob@@QAE@ABV0@@Z      00439b1d f   cvblobslib:blob.obj
 0001:00038d36       ??0CBlob@@QAE@PBV0@@Z      00439d36 f   cvblobslib:blob.obj
 0001:00038f4f       ??1CBlob@@QAE@XZ           00439f4f f   cvblobslib:blob.obj
 0001:00038f7e       ??4CBlob@@QAEAAV0@ABV0@@Z  00439f7e f   cvblobslib:blob.obj
 0001:000391c6       ?FillBlob@CBlob@@QBEXPAU_IplImage@@UCvScalar@@HH@Z 0043a1c6 f   cvblobslib:blob.obj
 0001:0003940b       ?CopyEdges@CBlob@@QBEXAAV1@@Z 0043a40b f   cvblobslib:blob.obj
 0001:000394d8       ?ClearEdges@CBlob@@QAEXXZ  0043a4d8 f   cvblobslib:blob.obj
 0001:000394f5       ?GetConvexHull@CBlob@@QBE_NPAPAUCvSeq@@@Z 0043a4f5 f   cvblobslib:blob.obj
 0001:00039540       ?GetEllipse@CBlob@@QBE?AUCvBox2D@@XZ 0043a540 f   cvblobslib:blob.obj
 0001:000395d2       ??RCBlobGetMoment@@UBENABVCBlob@@@Z 0043a5d2 f   cvblobslib:blob.obj
 0001:00039671       ??RCBlobGetHullPerimeter@@UBENABVCBlob@@@Z 0043a671 f   cvblobslib:blob.obj
 0001:000396f4       ??RCBlobGetHullArea@@UBENABVCBlob@@@Z 0043a6f4 f   cvblobslib:blob.obj
 0001:00039775       ??RCBlobGetMinXatMinY@@UBENABVCBlob@@@Z 0043a775 f   cvblobslib:blob.obj
 0001:0003982c       ??RCBlobGetMinYatMaxX@@UBENABVCBlob@@@Z 0043a82c f   cvblobslib:blob.obj
 0001:000398e3       ??RCBlobGetMaxXatMaxY@@UBENABVCBlob@@@Z 0043a8e3 f   cvblobslib:blob.obj
 0001:0003999a       ??RCBlobGetMaxYatMinX@@UBENABVCBlob@@@Z 0043a99a f   cvblobslib:blob.obj
 0001:00039a51       ??RCBlobGetElongation@@UBENABVCBlob@@@Z 0043aa51 f   cvblobslib:blob.obj
 0001:00039b45       ??RCBlobGetCompactness@@UBENABVCBlob@@@Z 0043ab45 f   cvblobslib:blob.obj
 0001:00039ba2       ??RCBlobGetRoughness@@UBENABVCBlob@@@Z 0043aba2 f   cvblobslib:blob.obj
 0001:00039c41       ??RCBlobGetLength@@UBENABVCBlob@@@Z 0043ac41 f   cvblobslib:blob.obj
 0001:00039d14       ??RCBlobGetBreadth@@UBENABVCBlob@@@Z 0043ad14 f   cvblobslib:blob.obj
 0001:00039de7       ??RCBlobGetDistanceFromPoint@@UBENABVCBlob@@@Z 0043ade7 f   cvblobslib:blob.obj
 0001:00039e9b       ??RCBlobGetXYInside@@UBENABVCBlob@@@Z 0043ae9b f   cvblobslib:blob.obj
 0001:0003a0c0       ?cvSlice@@YA?AUCvSlice@@HH@Z 0043b0c0 f i cvblobslib:blob.obj
 0001:0003a0e0       ??0CBlobGetXCenter@@QAE@XZ 0043b0e0 f i cvblobslib:blob.obj
 0001:0003a100       ??1CBlobGetXCenter@@UAE@XZ 0043b100 f i cvblobslib:blob.obj
 0001:0003a120       ??0CBlobGetYCenter@@QAE@XZ 0043b120 f i cvblobslib:blob.obj
 0001:0003a140       ??1CBlobGetYCenter@@UAE@XZ 0043b140 f i cvblobslib:blob.obj
 0001:0003a160       ??_GCBlobGetXCenter@@UAEPAXI@Z 0043b160 f i cvblobslib:blob.obj
 0001:0003a160       ??_ECBlobGetXCenter@@UAEPAXI@Z 0043b160 f i cvblobslib:blob.obj
 0001:0003a190       ??_GCBlobGetYCenter@@UAEPAXI@Z 0043b190 f i cvblobslib:blob.obj
 0001:0003a190       ??_ECBlobGetYCenter@@UAEPAXI@Z 0043b190 f i cvblobslib:blob.obj
 0001:0003a1c0       ??0?$vector@UCvPoint@@V?$allocator@UCvPoint@@@std@@@std@@QAE@ABV?$allocator@UCvPoint@@@1@@Z 0043b1c0 f i cvblobslib:blob.obj
 0001:0003a200       ??0?$vector@UCvPoint@@V?$allocator@UCvPoint@@@std@@@std@@QAE@IABUCvPoint@@ABV?$allocator@UCvPoint@@@1@@Z 0043b200 f i cvblobslib:blob.obj
 0001:0003a270       ??1?$vector@UCvPoint@@V?$allocator@UCvPoint@@@std@@@std@@QAE@XZ 0043b270 f i cvblobslib:blob.obj
 0001:0003a2d0       ?begin@?$vector@UCvPoint@@V?$allocator@UCvPoint@@@std@@@std@@QAEPAUCvPoint@@XZ 0043b2d0 f i cvblobslib:blob.obj
 0001:0003a2f0       ?end@?$vector@UCvPoint@@V?$allocator@UCvPoint@@@std@@@std@@QAEPAUCvPoint@@XZ 0043b2f0 f i cvblobslib:blob.obj
 0001:0003a310       ?size@?$vector@UCvPoint@@V?$allocator@UCvPoint@@@std@@@std@@QBEIXZ 0043b310 f i cvblobslib:blob.obj
 0001:0003a350       ?push_back@?$vector@UCvPoint@@V?$allocator@UCvPoint@@@std@@@std@@QAEXABUCvPoint@@@Z 0043b350 f i cvblobslib:blob.obj
 0001:0003a380       ?clear@?$vector@UCvPoint@@V?$allocator@UCvPoint@@@std@@@std@@QAEXXZ 0043b380 f i cvblobslib:blob.obj
 0001:0003a3b0       ?insert@?$vector@UCvPoint@@V?$allocator@UCvPoint@@@std@@@std@@QAEPAUCvPoint@@PAU3@ABU3@@Z 0043b3b0 f i cvblobslib:blob.obj
 0001:0003a400       ?erase@?$vector@UCvPoint@@V?$allocator@UCvPoint@@@std@@@std@@QAEPAUCvPoint@@PAU3@0@Z 0043b400 f i cvblobslib:blob.obj
 0001:0003a450       ?_Destroy@?$vector@UCvPoint@@V?$allocator@UCvPoint@@@std@@@std@@IAEXPAUCvPoint@@0@Z 0043b450 f i cvblobslib:blob.obj
 0001:0003a480       ?_Ufill@?$vector@UCvPoint@@V?$allocator@UCvPoint@@@std@@@std@@IAEXPAUCvPoint@@IABU3@@Z 0043b480 f i cvblobslib:blob.obj
 0001:0003a4c0       ?allocate@?$allocator@UCvPoint@@@std@@QAEPAUCvPoint@@IPBX@Z 0043b4c0 f i cvblobslib:blob.obj
 0001:0003a4e0       ?deallocate@?$allocator@UCvPoint@@@std@@QAEXPAXI@Z 0043b4e0 f i cvblobslib:blob.obj
 0001:0003a500       ?insert@?$vector@UCvPoint@@V?$allocator@UCvPoint@@@std@@@std@@QAEXPAUCvPoint@@IABU3@@Z 0043b500 f i cvblobslib:blob.obj
 0001:0003a720       ?construct@?$allocator@UCvPoint@@@std@@QAEXPAUCvPoint@@ABU3@@Z 0043b720 f i cvblobslib:blob.obj
 0001:0003a740       ?destroy@?$allocator@UCvPoint@@@std@@QAEXPAUCvPoint@@@Z 0043b740 f i cvblobslib:blob.obj
 0001:0003a760       ?_Ucopy@?$vector@UCvPoint@@V?$allocator@UCvPoint@@@std@@@std@@IAEPAUCvPoint@@PBU3@0PAU3@@Z 0043b760 f i cvblobslib:blob.obj
 0001:0003a7a0       ?sort@std@@YAXPAUCvPoint@@0UcomparaCvPoint@CBlob@@@Z 0043b7a0 f i cvblobslib:blob.obj
 0001:0003a7d0       ?copy@std@@YAPAUCvPoint@@PAU2@00@Z 0043b7d0 f i cvblobslib:blob.obj
 0001:0003a810       ?_Allocate@std@@YAPAUCvPoint@@HPAU2@@Z 0043b810 f i cvblobslib:blob.obj
 0001:0003a840       ?fill@std@@YAXPAUCvPoint@@0ABU2@@Z 0043b840 f i cvblobslib:blob.obj
 0001:0003a870       ?copy_backward@std@@YAPAUCvPoint@@PAU2@00@Z 0043b870 f i cvblobslib:blob.obj
 0001:0003a8b0       ?_Construct@std@@YAXPAUCvPoint@@ABU2@@Z 0043b8b0 f i cvblobslib:blob.obj
 0001:0003a8f0       ??2@YAPAXIPAX@Z            0043b8f0 f i cvblobslib:blob.obj
 0001:0003a900       ?_Destroy@std@@YAXPAUCvPoint@@@Z 0043b900 f i cvblobslib:blob.obj
 0001:0003a910       ?_Val_type@std@@YAPAUCvPoint@@PBU2@@Z 0043b910 f i cvblobslib:blob.obj
 0001:0003a920       ?_Sort_0@std@@YAXPAUCvPoint@@0UcomparaCvPoint@CBlob@@0@Z 0043b920 f i cvblobslib:blob.obj
 0001:0003a9d0       ?_Insertion_sort@std@@YAXPAUCvPoint@@0UcomparaCvPoint@CBlob@@@Z 0043b9d0 f i cvblobslib:blob.obj
 0001:0003aa00       ?_Sort@std@@YAXPAUCvPoint@@0UcomparaCvPoint@CBlob@@0@Z 0043ba00 f i cvblobslib:blob.obj
 0001:0003ab10       ?_Unguarded_insert@std@@YAXPAUCvPoint@@U2@UcomparaCvPoint@CBlob@@@Z 0043bb10 f i cvblobslib:blob.obj
 0001:0003ab80       ?_Insertion_sort_1@std@@YAXPAUCvPoint@@0UcomparaCvPoint@CBlob@@0@Z 0043bb80 f i cvblobslib:blob.obj
 0001:0003ac30       ?_Median@std@@YA?AUCvPoint@@U2@00UcomparaCvPoint@CBlob@@@Z 0043bc30 f i cvblobslib:blob.obj
 0001:0003ad60       ?_Unguarded_partition@std@@YAPAUCvPoint@@PAU2@0U2@UcomparaCvPoint@CBlob@@@Z 0043bd60 f i cvblobslib:blob.obj
 0001:0003adf0       ?iter_swap@std@@YAXPAUCvPoint@@0@Z 0043bdf0 f i cvblobslib:blob.obj
 0001:0003ae20       ?_Iter_swap@std@@YAXPAUCvPoint@@00@Z 0043be20 f i cvblobslib:blob.obj
 0001:0003ae60       ?Area@CBlob@@QBENXZ        0043be60 f i cvblobslib:blob.obj
 0001:0003ae80       ?Perimeter@CBlob@@QBENXZ   0043be80 f i cvblobslib:blob.obj
 0001:0003aea0       ?MinY@CBlob@@QBENXZ        0043bea0 f i cvblobslib:blob.obj
 0001:0003aec0       ?MaxX@CBlob@@QBENXZ        0043bec0 f i cvblobslib:blob.obj
 0001:0003aee0       ?MaxY@CBlob@@QBENXZ        0043bee0 f i cvblobslib:blob.obj
 0001:0003af00       ?Edges@CBlob@@QBEPAUCvSeq@@XZ 0043bf00 f i cvblobslib:blob.obj
 0001:0003af20       ?SumX@CBlob@@QBENXZ        0043bf20 f i cvblobslib:blob.obj
 0001:0003af40       ?SumY@CBlob@@QBENXZ        0043bf40 f i cvblobslib:blob.obj
 0001:0003af60       ?SumXX@CBlob@@QBENXZ       0043bf60 f i cvblobslib:blob.obj
 0001:0003af80       ?SumYY@CBlob@@QBENXZ       0043bf80 f i cvblobslib:blob.obj
 0001:0003afa0       ??RcomparaCvPoint@CBlob@@QAE_NUCvPoint@@0@Z 0043bfa0 f i cvblobslib:blob.obj
 0001:0003afd0       ??1COperadorBlob@@UAE@XZ   0043bfd0 f i cvblobslib:blob.obj
 0001:0003aff0       ??0COperadorBlob@@QAE@XZ   0043bff0 f i cvblobslib:blob.obj
 0001:0003b010       ??0CBlobGetHullPerimeter@@QAE@XZ 0043c010 f i cvblobslib:blob.obj
 0001:0003b030       ?GetNom@CBlobGetHullPerimeter@@UBEPBDXZ 0043c030 f i cvblobslib:blob.obj
 0001:0003b040       ??1CBlobGetHullPerimeter@@UAE@XZ 0043c040 f i cvblobslib:blob.obj
 0001:0003b060       ??_GCBlobGetHullPerimeter@@UAEPAXI@Z 0043c060 f i cvblobslib:blob.obj
 0001:0003b060       ??_ECBlobGetHullPerimeter@@UAEPAXI@Z 0043c060 f i cvblobslib:blob.obj
 0001:0003b090       ??RCBlobGetXCenter@@UBENABVCBlob@@@Z 0043c090 f i cvblobslib:blob.obj
 0001:0003b0d0       ?MinX@CBlob@@QBENXZ        0043c0d0 f i cvblobslib:blob.obj
 0001:0003b0f0       ?GetNom@CBlobGetXCenter@@UBEPBDXZ 0043c0f0 f i cvblobslib:blob.obj
 0001:0003b100       ??RCBlobGetYCenter@@UBENABVCBlob@@@Z 0043c100 f i cvblobslib:blob.obj
 0001:0003b140       ?GetNom@CBlobGetYCenter@@UBEPBDXZ 0043c140 f i cvblobslib:blob.obj
 0001:0003b150       ??0CBlobResult@@QAE@XZ     0043c150 f   cvblobslib:BlobResult.obj
 0001:0003b1d9       ??0CBlobResult@@QAE@PAU_IplImage@@0H_N@Z 0043c1d9 f   cvblobslib:BlobResult.obj
 0001:0003b29d       ??0CBlobResult@@QAE@ABV0@@Z 0043c29d f   cvblobslib:BlobResult.obj
 0001:0003b40a       ??1CBlobResult@@UAE@XZ     0043c40a f   cvblobslib:BlobResult.obj
 0001:0003b45e       ??4CBlobResult@@QAEAAV0@ABV0@@Z 0043c45e f   cvblobslib:BlobResult.obj
 0001:0003b5d7       ??HCBlobResult@@QAE?AV0@ABV0@@Z 0043c5d7 f   cvblobslib:BlobResult.obj
 0001:0003b6f0       ?AddBlob@CBlobResult@@QAEXPAVCBlob@@@Z 0043c6f0 f   cvblobslib:BlobResult.obj
 0001:0003b77b       ?GetSTLResult@CBlobResult@@QBE?AV?$vector@NV?$allocator@N@std@@@std@@PAVCOperadorBlob@@@Z 0043c77b f   cvblobslib:BlobResult.obj
 0001:0003b87e       ?GetNumber@CBlobResult@@QBENHPAVCOperadorBlob@@@Z 0043c87e f   cvblobslib:BlobResult.obj
 0001:0003b8c8       ?Filter@CBlobResult@@QAEXAAV1@HPAVCOperadorBlob@@HNN@Z 0043c8c8 f   cvblobslib:BlobResult.obj
 0001:0003c26e       ?GetBlob@CBlobResult@@QBE?AVCBlob@@H@Z 0043d26e f   cvblobslib:BlobResult.obj
 0001:0003c2ca       ?GetBlob@CBlobResult@@QAEPAVCBlob@@H@Z 0043d2ca f   cvblobslib:BlobResult.obj
 0001:0003c308       ?GetNthBlob@CBlobResult@@QBEXPAVCOperadorBlob@@HAAVCBlob@@@Z 0043d308 f   cvblobslib:BlobResult.obj
 0001:0003c589       ?ClearBlobs@CBlobResult@@QAEXXZ 0043d589 f   cvblobslib:BlobResult.obj
 0001:0003c5f4       ?RaiseError@CBlobResult@@ABEXH@Z 0043d5f4 f   cvblobslib:BlobResult.obj
 0001:0003c617       ?PrintBlobs@CBlobResult@@QBEXPAD@Z 0043d617 f   cvblobslib:BlobResult.obj
 0001:0003cc70       ??_ECBlobResult@@UAEPAXI@Z 0043dc70 f i cvblobslib:BlobResult.obj
 0001:0003cc70       ??_GCBlobResult@@UAEPAXI@Z 0043dc70 f i cvblobslib:BlobResult.obj
 0001:0003cca0       ??_GCBlob@@QAEPAXI@Z       0043dca0 f i cvblobslib:BlobResult.obj
 0001:0003ccd0       ??0CBlobGetArea@@QAE@XZ    0043dcd0 f i cvblobslib:BlobResult.obj
 0001:0003ccf0       ??0CBlobGetPerimeter@@QAE@XZ 0043dcf0 f i cvblobslib:BlobResult.obj
 0001:0003cd10       ??1CBlobGetPerimeter@@UAE@XZ 0043dd10 f i cvblobslib:BlobResult.obj
 0001:0003cd30       ??0CBlobGetExterior@@QAE@XZ 0043dd30 f i cvblobslib:BlobResult.obj
 0001:0003cd50       ??1CBlobGetExterior@@UAE@XZ 0043dd50 f i cvblobslib:BlobResult.obj
 0001:0003cd70       ??0CBlobGetMean@@QAE@XZ    0043dd70 f i cvblobslib:BlobResult.obj
 0001:0003cd90       ??0CBlobGetCompactness@@QAE@XZ 0043dd90 f i cvblobslib:BlobResult.obj
 0001:0003cdb0       ??1CBlobGetCompactness@@UAE@XZ 0043ddb0 f i cvblobslib:BlobResult.obj
 0001:0003cdd0       ??0CBlobGetLength@@QAE@XZ  0043ddd0 f i cvblobslib:BlobResult.obj
 0001:0003cdf0       ??1CBlobGetLength@@UAE@XZ  0043ddf0 f i cvblobslib:BlobResult.obj
 0001:0003ce10       ??0CBlobGetExternPerimeter@@QAE@XZ 0043de10 f i cvblobslib:BlobResult.obj
 0001:0003ce30       ??1CBlobGetExternPerimeter@@UAE@XZ 0043de30 f i cvblobslib:BlobResult.obj
 0001:0003ce50       ??_GCBlobGetPerimeter@@UAEPAXI@Z 0043de50 f i cvblobslib:BlobResult.obj
 0001:0003ce50       ??_ECBlobGetPerimeter@@UAEPAXI@Z 0043de50 f i cvblobslib:BlobResult.obj
 0001:0003ce80       ??_GCBlobGetExterior@@UAEPAXI@Z 0043de80 f i cvblobslib:BlobResult.obj
 0001:0003ce80       ??_ECBlobGetExterior@@UAEPAXI@Z 0043de80 f i cvblobslib:BlobResult.obj
 0001:0003ceb0       ??_ECBlobGetCompactness@@UAEPAXI@Z 0043deb0 f i cvblobslib:BlobResult.obj
 0001:0003ceb0       ??_GCBlobGetCompactness@@UAEPAXI@Z 0043deb0 f i cvblobslib:BlobResult.obj
 0001:0003cee0       ??_ECBlobGetLength@@UAEPAXI@Z 0043dee0 f i cvblobslib:BlobResult.obj
 0001:0003cee0       ??_GCBlobGetLength@@UAEPAXI@Z 0043dee0 f i cvblobslib:BlobResult.obj
 0001:0003cf10       ??_GCBlobGetExternPerimeter@@UAEPAXI@Z 0043df10 f i cvblobslib:BlobResult.obj
 0001:0003cf10       ??_ECBlobGetExternPerimeter@@UAEPAXI@Z 0043df10 f i cvblobslib:BlobResult.obj
 0001:0003cf40       ??0?$vector@PAVCBlob@@V?$allocator@PAVCBlob@@@std@@@std@@QAE@ABV?$allocator@PAVCBlob@@@1@@Z 0043df40 f i cvblobslib:BlobResult.obj
 0001:0003cf80       ??0?$vector@PAVCBlob@@V?$allocator@PAVCBlob@@@std@@@std@@QAE@IABQAVCBlob@@ABV?$allocator@PAVCBlob@@@1@@Z 0043df80 f i cvblobslib:BlobResult.obj
 0001:0003cff0       ??1?$vector@PAVCBlob@@V?$allocator@PAVCBlob@@@std@@@std@@QAE@XZ 0043dff0 f i cvblobslib:BlobResult.obj
 0001:0003d050       ??4?$vector@PAVCBlob@@V?$allocator@PAVCBlob@@@std@@@std@@QAEAAV01@ABV01@@Z 0043e050 f i cvblobslib:BlobResult.obj
 0001:0003d1e0       ?begin@?$vector@PAVCBlob@@V?$allocator@PAVCBlob@@@std@@@std@@QAEPAPAVCBlob@@XZ 0043e1e0 f i cvblobslib:BlobResult.obj
 0001:0003d200       ?begin@?$vector@PAVCBlob@@V?$allocator@PAVCBlob@@@std@@@std@@QBEPBQAVCBlob@@XZ 0043e200 f i cvblobslib:BlobResult.obj
 0001:0003d220       ?end@?$vector@PAVCBlob@@V?$allocator@PAVCBlob@@@std@@@std@@QAEPAPAVCBlob@@XZ 0043e220 f i cvblobslib:BlobResult.obj
 0001:0003d240       ?end@?$vector@PAVCBlob@@V?$allocator@PAVCBlob@@@std@@@std@@QBEPBQAVCBlob@@XZ 0043e240 f i cvblobslib:BlobResult.obj
 0001:0003d260       ?resize@?$vector@PAVCBlob@@V?$allocator@PAVCBlob@@@std@@@std@@QAEXIABQAVCBlob@@@Z 0043e260 f i cvblobslib:BlobResult.obj
 0001:0003d2d0       ?size@?$vector@PAVCBlob@@V?$allocator@PAVCBlob@@@std@@@std@@QBEIXZ 0043e2d0 f i cvblobslib:BlobResult.obj
 0001:0003d310       ??A?$vector@PAVCBlob@@V?$allocator@PAVCBlob@@@std@@@std@@QBEABQAVCBlob@@I@Z 0043e310 f i cvblobslib:BlobResult.obj
 0001:0003d330       ??A?$vector@PAVCBlob@@V?$allocator@PAVCBlob@@@std@@@std@@QAEAAPAVCBlob@@I@Z 0043e330 f i cvblobslib:BlobResult.obj
 0001:0003d350       ?push_back@?$vector@PAVCBlob@@V?$allocator@PAVCBlob@@@std@@@std@@QAEXABQAVCBlob@@@Z 0043e350 f i cvblobslib:BlobResult.obj
 0001:0003d380       ?erase@?$vector@PAVCBlob@@V?$allocator@PAVCBlob@@@std@@@std@@QAEPAPAVCBlob@@PAPAV3@0@Z 0043e380 f i cvblobslib:BlobResult.obj
 0001:0003d3d0       ?clear@?$vector@PAVCBlob@@V?$allocator@PAVCBlob@@@std@@@std@@QAEXXZ 0043e3d0 f i cvblobslib:BlobResult.obj
 0001:0003d400       ??0?$vector@NV?$allocator@N@std@@@std@@QAE@ABV?$allocator@N@1@@Z 0043e400 f i cvblobslib:BlobResult.obj
 0001:0003d440       ??0?$vector@NV?$allocator@N@std@@@std@@QAE@IABNABV?$allocator@N@1@@Z 0043e440 f i cvblobslib:BlobResult.obj
 0001:0003d4b0       ??0?$vector@NV?$allocator@N@std@@@std@@QAE@ABV01@@Z 0043e4b0 f i cvblobslib:BlobResult.obj
 0001:0003d520       ??1?$vector@NV?$allocator@N@std@@@std@@QAE@XZ 0043e520 f i cvblobslib:BlobResult.obj
 0001:0003d580       ??4?$vector@NV?$allocator@N@std@@@std@@QAEAAV01@ABV01@@Z 0043e580 f i cvblobslib:BlobResult.obj
 0001:0003d710       ?begin@?$vector@NV?$allocator@N@std@@@std@@QAEPANXZ 0043e710 f i cvblobslib:BlobResult.obj
 0001:0003d730       ?end@?$vector@NV?$allocator@N@std@@@std@@QAEPANXZ 0043e730 f i cvblobslib:BlobResult.obj
 0001:0003d750       ??A?$vector@NV?$allocator@N@std@@@std@@QAEAANI@Z 0043e750 f i cvblobslib:BlobResult.obj
 0001:0003d770       ?capacity@?$vector@PAVCBlob@@V?$allocator@PAVCBlob@@@std@@@std@@QBEIXZ 0043e770 f i cvblobslib:BlobResult.obj
 0001:0003d7b0       ?insert@?$vector@PAVCBlob@@V?$allocator@PAVCBlob@@@std@@@std@@QAEPAPAVCBlob@@PAPAV3@ABQAV3@@Z 0043e7b0 f i cvblobslib:BlobResult.obj
 0001:0003d800       ?insert@?$vector@PAVCBlob@@V?$allocator@PAVCBlob@@@std@@@std@@QAEXPAPAVCBlob@@IABQAV3@@Z 0043e800 f i cvblobslib:BlobResult.obj
 0001:0003da20       ?_Destroy@?$vector@PAVCBlob@@V?$allocator@PAVCBlob@@@std@@@std@@IAEXPAPAVCBlob@@0@Z 0043ea20 f i cvblobslib:BlobResult.obj
 0001:0003da50       ?_Ucopy@?$vector@PAVCBlob@@V?$allocator@PAVCBlob@@@std@@@std@@IAEPAPAVCBlob@@PBQAV3@0PAPAV3@@Z 0043ea50 f i cvblobslib:BlobResult.obj
 0001:0003da90       ?_Ufill@?$vector@PAVCBlob@@V?$allocator@PAVCBlob@@@std@@@std@@IAEXPAPAVCBlob@@IABQAV3@@Z 0043ea90 f i cvblobslib:BlobResult.obj
 0001:0003dad0       ?allocate@?$allocator@PAVCBlob@@@std@@QAEPAPAVCBlob@@IPBX@Z 0043ead0 f i cvblobslib:BlobResult.obj
 0001:0003daf0       ?deallocate@?$allocator@PAVCBlob@@@std@@QAEXPAXI@Z 0043eaf0 f i cvblobslib:BlobResult.obj
 0001:0003db10       ?capacity@?$vector@NV?$allocator@N@std@@@std@@QBEIXZ 0043eb10 f i cvblobslib:BlobResult.obj
 0001:0003db50       ?begin@?$vector@NV?$allocator@N@std@@@std@@QBEPBNXZ 0043eb50 f i cvblobslib:BlobResult.obj
 0001:0003db70       ?end@?$vector@NV?$allocator@N@std@@@std@@QBEPBNXZ 0043eb70 f i cvblobslib:BlobResult.obj
 0001:0003db90       ?size@?$vector@NV?$allocator@N@std@@@std@@QBEIXZ 0043eb90 f i cvblobslib:BlobResult.obj
 0001:0003dbd0       ?_Destroy@?$vector@NV?$allocator@N@std@@@std@@IAEXPAN0@Z 0043ebd0 f i cvblobslib:BlobResult.obj
 0001:0003dc00       ?_Ucopy@?$vector@NV?$allocator@N@std@@@std@@IAEPANPBN0PAN@Z 0043ec00 f i cvblobslib:BlobResult.obj
 0001:0003dc40       ?_Ufill@?$vector@NV?$allocator@N@std@@@std@@IAEXPANIABN@Z 0043ec40 f i cvblobslib:BlobResult.obj
 0001:0003dc80       ?allocate@?$allocator@N@std@@QAEPANIPBX@Z 0043ec80 f i cvblobslib:BlobResult.obj
 0001:0003dca0       ?deallocate@?$allocator@N@std@@QAEXPAXI@Z 0043eca0 f i cvblobslib:BlobResult.obj
 0001:0003dcc0       ?construct@?$allocator@PAVCBlob@@@std@@QAEXPAPAVCBlob@@ABQAV3@@Z 0043ecc0 f i cvblobslib:BlobResult.obj
 0001:0003dce0       ?destroy@?$allocator@PAVCBlob@@@std@@QAEXPAPAVCBlob@@@Z 0043ece0 f i cvblobslib:BlobResult.obj
 0001:0003dd00       ?construct@?$allocator@N@std@@QAEXPANABN@Z 0043ed00 f i cvblobslib:BlobResult.obj
 0001:0003dd20       ?destroy@?$allocator@N@std@@QAEXPAN@Z 0043ed20 f i cvblobslib:BlobResult.obj
 0001:0003dd40       ?partial_sort_copy@std@@YAPANPAN000U?$greater@N@1@@Z 0043ed40 f i cvblobslib:BlobResult.obj
 0001:0003dd80       ?copy@std@@YAPAPAVCBlob@@PBQAV2@0PAPAV2@@Z 0043ed80 f i cvblobslib:BlobResult.obj
 0001:0003ddb0       ?copy@std@@YAPAPAVCBlob@@PAPAV2@00@Z 0043edb0 f i cvblobslib:BlobResult.obj
 0001:0003dde0       ?copy@std@@YAPANPBN0PAN@Z  0043ede0 f i cvblobslib:BlobResult.obj
 0001:0003de20       ?fill@std@@YAXPAPAVCBlob@@0ABQAV2@@Z 0043ee20 f i cvblobslib:BlobResult.obj
 0001:0003de50       ?copy_backward@std@@YAPAPAVCBlob@@PAPAV2@00@Z 0043ee50 f i cvblobslib:BlobResult.obj
 0001:0003de80       ?_Allocate@std@@YAPAPAVCBlob@@HPAPAV2@@Z 0043ee80 f i cvblobslib:BlobResult.obj
 0001:0003deb0       ?_Allocate@std@@YAPANHPAN@Z 0043eeb0 f i cvblobslib:BlobResult.obj
 0001:0003dee0       ?_Construct@std@@YAXPAPAVCBlob@@ABQAV2@@Z 0043eee0 f i cvblobslib:BlobResult.obj
 0001:0003df20       ?_Destroy@std@@YAXPAPAVCBlob@@@Z 0043ef20 f i cvblobslib:BlobResult.obj
 0001:0003df30       ?_Construct@std@@YAXPANABN@Z 0043ef30 f i cvblobslib:BlobResult.obj
 0001:0003df70       ?_Destroy@std@@YAXPAN@Z    0043ef70 f i cvblobslib:BlobResult.obj
 0001:0003df80       ?_Dist_type@std@@YAPAHPBN@Z 0043ef80 f i cvblobslib:BlobResult.obj
 0001:0003df90       ?_Val_type@std@@YAPANPBN@Z 0043ef90 f i cvblobslib:BlobResult.obj
 0001:0003dfa0       ?_Partial_sort_copy@std@@YAPANPAN000U?$greater@N@1@PAH0@Z 0043efa0 f i cvblobslib:BlobResult.obj
 0001:0003e070       ??R?$greater@N@std@@QBE_NABN0@Z 0043f070 f i cvblobslib:BlobResult.obj
 0001:0003e0b0       ?make_heap@std@@YAXPAN0U?$greater@N@1@@Z 0043f0b0 f i cvblobslib:BlobResult.obj
 0001:0003e100       ?_Adjust_heap@std@@YAXPANHHNU?$greater@N@1@@Z 0043f100 f i cvblobslib:BlobResult.obj
 0001:0003e1d0       ?sort_heap@std@@YAXPAN0U?$greater@N@1@@Z 0043f1d0 f i cvblobslib:BlobResult.obj
 0001:0003e210       ?_Make_heap@std@@YAXPAN0U?$greater@N@1@PAH0@Z 0043f210 f i cvblobslib:BlobResult.obj
 0001:0003e270       ?_Push_heap@std@@YAXPANHHNU?$greater@N@1@@Z 0043f270 f i cvblobslib:BlobResult.obj
 0001:0003e300       ?pop_heap@std@@YAXPAN0U?$greater@N@1@@Z 0043f300 f i cvblobslib:BlobResult.obj
 0001:0003e330       ?_Pop_heap_0@std@@YAXPAN0U?$greater@N@1@0@Z 0043f330 f i cvblobslib:BlobResult.obj
 0001:0003e370       ?_Pop_heap@std@@YAXPAN00NU?$greater@N@1@PAH@Z 0043f370 f i cvblobslib:BlobResult.obj
 0001:0003e3b0       ??BCOperadorBlob@@QBEPAV0@XZ 0043f3b0 f i cvblobslib:BlobResult.obj
 0001:0003e3c0       ??RCBlobGetPerimeter@@UBENABVCBlob@@@Z 0043f3c0 f i cvblobslib:BlobResult.obj
 0001:0003e3e0       ?GetNom@CBlobGetPerimeter@@UBEPBDXZ 0043f3e0 f i cvblobslib:BlobResult.obj
 0001:0003e3f0       ??RCBlobGetExterior@@UBENABVCBlob@@@Z 0043f3f0 f i cvblobslib:BlobResult.obj
 0001:0003e410       ?Exterior@CBlob@@QBEHXZ    0043f410 f i cvblobslib:BlobResult.obj
 0001:0003e430       ?GetNom@CBlobGetExterior@@UBEPBDXZ 0043f430 f i cvblobslib:BlobResult.obj
 0001:0003e440       ?Mean@CBlob@@QBENXZ        0043f440 f i cvblobslib:BlobResult.obj
 0001:0003e460       ?GetNom@CBlobGetCompactness@@UBEPBDXZ 0043f460 f i cvblobslib:BlobResult.obj
 0001:0003e470       ?GetNom@CBlobGetLength@@UBEPBDXZ 0043f470 f i cvblobslib:BlobResult.obj
 0001:0003e480       ??RCBlobGetExternPerimeter@@UBENABVCBlob@@@Z 0043f480 f i cvblobslib:BlobResult.obj
 0001:0003e4a0       ?ExternPerimeter@CBlob@@QBENXZ 0043f4a0 f i cvblobslib:BlobResult.obj
 0001:0003e4c0       ?GetNom@CBlobGetExternPerimeter@@UBEPBDXZ 0043f4c0 f i cvblobslib:BlobResult.obj
 0001:0003e4d0       ?GetNumBlobs@CBlobResult@@QBEHXZ 0043f4d0 f i cvblobslib:BlobResult.obj
 0001:0003e4f0       ?BlobAnalysis@@YA_NPAU_IplImage@@E0_N1AAV?$vector@PAVCBlob@@V?$allocator@PAVCBlob@@@std@@@std@@@Z 0043f4f0 f   cvblobslib:BlobExtraction.obj
 0001:0004189c       ?NewSubsume@@YAPAHPAHH@Z   0044289c f   cvblobslib:BlobExtraction.obj
 0001:000418e2       ?Subsume@@YAXAAV?$vector@PAVCBlob@@V?$allocator@PAVCBlob@@@std@@@std@@HPAHPAVCBlob@@2_NHH@Z 004428e2 f   cvblobslib:BlobExtraction.obj
 0001:00041b3a       ?GetExternPerimeter@@YANHHHHHPAU_IplImage@@@Z 00442b3a f   cvblobslib:BlobExtraction.obj
 0001:00041c40       ?cvSize@@YA?AUCvSize@@HH@Z 00442c40 f i cvblobslib:BlobExtraction.obj
 0001:00041c60       ?back@?$vector@PAVCBlob@@V?$allocator@PAVCBlob@@@std@@@std@@QAEAAPAVCBlob@@XZ 00442c60 f i cvblobslib:BlobExtraction.obj
 0001:00041c80       ?erase@?$vector@PAVCBlob@@V?$allocator@PAVCBlob@@@std@@@std@@QAEPAPAVCBlob@@PAPAV3@@Z 00442c80 f i cvblobslib:BlobExtraction.obj
 0001:00041cd4       _cvLoadImage               00442cd4 f   highgui:highgui100.dll
 0001:00041cda       _cvSaveImage               00442cda f   highgui:highgui100.dll
 0001:00041ce0       _cvSmooth                  00442ce0 f   cv:cv100.dll
 0001:00041ce6       _cvCvtColor                00442ce6 f   cv:cv100.dll
 0001:00041cec       _cvConvexHull2             00442cec f   cv:cv100.dll
 0001:00041cf2       _cvFitEllipse2             00442cf2 f   cv:cv100.dll
 0001:00041cf8       _cvArcLength               00442cf8 f   cv:cv100.dll
 0001:00041cfe       _cvContourArea             00442cfe f   cv:cv100.dll
 0001:00041d04       _cvCreateImage             00442d04 f   cxcore:cxcore100.dll
 0001:00041d0a       _cvReleaseImage            00442d0a f   cxcore:cxcore100.dll
 0001:00041d10       _cvFlip                    00442d10 f   cxcore:cxcore100.dll
 0001:00041d16       _cvSetZero                 00442d16 f   cxcore:cxcore100.dll
 0001:00041d1c       _cvCreateSeq               00442d1c f   cxcore:cxcore100.dll
 0001:00041d22       _cvCreateMemStorage        00442d22 f   cxcore:cxcore100.dll
 0001:00041d28       _cvEndWriteSeq             00442d28 f   cxcore:cxcore100.dll
 0001:00041d2e       _cvCreateSeqBlock          00442d2e f   cxcore:cxcore100.dll
 0001:00041d34       _cvChangeSeqBlock          00442d34 f   cxcore:cxcore100.dll
 0001:00041d3a       _cvStartAppendToSeq        00442d3a f   cxcore:cxcore100.dll
 0001:00041d40       _cvStartReadSeq            00442d40 f   cxcore:cxcore100.dll
 0001:00041d46       _cvReleaseMemStorage       00442d46 f   cxcore:cxcore100.dll
 0001:00041d4c       _cvClearSeq                00442d4c f   cxcore:cxcore100.dll
 0001:00041d52       _cvLine                    00442d52 f   cxcore:cxcore100.dll
 0001:00041d58       _cvSeqPush                 00442d58 f   cxcore:cxcore100.dll
 0001:00041d5e       _cvGetImageROI             00442d5e f   cxcore:cxcore100.dll
 0001:00041d64       ?SetOccDialogInfo@CWnd@@MAEHPAU_AFX_OCC_DIALOG_INFO@@@Z 00442d64 f   mfc42:MFC42.DLL
 0001:00041d6a       ?IsFrameWnd@CWnd@@UBEHXZ   00442d6a f   mfc42:MFC42.DLL
 0001:00041d70       ?CheckAutoCenter@CWnd@@UAEHXZ 00442d70 f   mfc42:MFC42.DLL
 0001:00041d76       ?OnChildNotify@CWnd@@MAEHIIJPAJ@Z 00442d76 f   mfc42:MFC42.DLL
 0001:00041d7c       ?PostNcDestroy@CWnd@@MAEXXZ 00442d7c f   mfc42:MFC42.DLL
 0001:00041d82       ?DefWindowProcA@CWnd@@MAEJIIJ@Z 00442d82 f   mfc42:MFC42.DLL
 0001:00041d88       ?OnWndMsg@CWnd@@MAEHIIJPAJ@Z 00442d88 f   mfc42:MFC42.DLL
 0001:00041d8e       ?WindowProc@CWnd@@MAEJIIJ@Z 00442d8e f   mfc42:MFC42.DLL
 0001:00041d94       ?OnAmbientProperty@CWnd@@UAEHPAVCOleControlSite@@JPAUtagVARIANT@@@Z 00442d94 f   mfc42:MFC42.DLL
 0001:00041d9a       ?PreTranslateMessage@CWnd@@UAEHPAUtagMSG@@@Z 00442d9a f   mfc42:MFC42.DLL
 0001:00041da0       ?GetSuperWndProcAddr@CWnd@@MAEPAP6GJPAUHWND__@@IIJ@ZXZ 00442da0 f   mfc42:MFC42.DLL
 0001:00041da6       ?OnNotify@CWnd@@MAEHIJPAJ@Z 00442da6 f   mfc42:MFC42.DLL
 0001:00041dac       ?OnCommand@CWnd@@MAEHIJ@Z  00442dac f   mfc42:MFC42.DLL
 0001:00041db2       ?EndModalLoop@CWnd@@UAEXH@Z 00442db2 f   mfc42:MFC42.DLL
 0001:00041db8       ?ContinueModal@CWnd@@UAEHXZ 00442db8 f   mfc42:MFC42.DLL
 0001:00041dbe       ?WinHelpA@CWnd@@UAEXKI@Z   00442dbe f   mfc42:MFC42.DLL
 0001:00041dc4       ?GetScrollBarCtrl@CWnd@@UBEPAVCScrollBar@@H@Z 00442dc4 f   mfc42:MFC42.DLL
 0001:00041dca       ?OnToolHitTest@CWnd@@UBEHVCPoint@@PAUtagTOOLINFOA@@@Z 00442dca f   mfc42:MFC42.DLL
 0001:00041dd0       ?CalcWindowRect@CWnd@@UAEXPAUtagRECT@@I@Z 00442dd0 f   mfc42:MFC42.DLL
 0001:00041dd6       ?PreCreateWindow@CWnd@@UAEHAAUtagCREATESTRUCTA@@@Z 00442dd6 f   mfc42:MFC42.DLL
 0001:00041ddc       ?DestroyWindow@CWnd@@UAEHXZ 00442ddc f   mfc42:MFC42.DLL
 0001:00041de2       ?PreSubclassWindow@CWnd@@UAEXXZ 00442de2 f   mfc42:MFC42.DLL
 0001:00041de8       ?GetConnectionHook@CCmdTarget@@MAEPAUIConnectionPoint@@ABU_GUID@@@Z 00442de8 f   mfc42:MFC42.DLL
 0001:00041dee       ?GetExtraConnectionPoints@CCmdTarget@@MAEHPAVCPtrArray@@@Z 00442dee f   mfc42:MFC42.DLL
 0001:00041df4       ?GetInterfaceHook@CCmdTarget@@UAEPAUIUnknown@@PBX@Z 00442df4 f   mfc42:MFC42.DLL
 0001:00041dfa       ?OnCreateAggregates@CCmdTarget@@UAEHXZ 00442dfa f   mfc42:MFC42.DLL
 0001:00041e00       ?GetEventSinkMap@CCmdTarget@@MBEPBUAFX_EVENTSINKMAP@@XZ 00442e00 f   mfc42:MFC42.DLL
 0001:00041e06       ?GetInterfaceMap@CCmdTarget@@MBEPBUAFX_INTERFACEMAP@@XZ 00442e06 f   mfc42:MFC42.DLL
 0001:00041e0c       ?GetConnectionMap@CCmdTarget@@MBEPBUAFX_CONNECTIONMAP@@XZ 00442e0c f   mfc42:MFC42.DLL
 0001:00041e12       ?GetDispatchMap@CCmdTarget@@MBEPBUAFX_DISPMAP@@XZ 00442e12 f   mfc42:MFC42.DLL
 0001:00041e18       ?GetCommandMap@CCmdTarget@@MBEPBUAFX_OLECMDMAP@@XZ 00442e18 f   mfc42:MFC42.DLL
 0001:00041e1e       ?GetMessageMap@CWnd@@MBEPBUAFX_MSGMAP@@XZ 00442e1e f   mfc42:MFC42.DLL
 0001:00041e24       ?GetTypeLib@CCmdTarget@@UAEJKPAPAUITypeLib@@@Z 00442e24 f   mfc42:MFC42.DLL
 0001:00041e2a       ?GetTypeLibCache@CCmdTarget@@UAEPAVCTypeLibCache@@XZ 00442e2a f   mfc42:MFC42.DLL
 0001:00041e30       ?GetTypeInfoCount@CCmdTarget@@UAEIXZ 00442e30 f   mfc42:MFC42.DLL
 0001:00041e36       ?GetDispatchIID@CCmdTarget@@UAEHPAU_GUID@@@Z 00442e36 f   mfc42:MFC42.DLL
 0001:00041e3c       ?IsInvokeAllowed@CCmdTarget@@UAEHJ@Z 00442e3c f   mfc42:MFC42.DLL
 0001:00041e42       ?OnFinalRelease@CWnd@@UAEXXZ 00442e42 f   mfc42:MFC42.DLL
 0001:00041e48       ?OnCmdMsg@CCmdTarget@@UAEHIHPAXPAUAFX_CMDHANDLERINFO@@@Z 00442e48 f   mfc42:MFC42.DLL
 0001:00041e4e       ??0CWnd@@QAE@XZ            00442e4e f   mfc42:MFC42.DLL
 0001:00041e54       ??2@YAPAXI@Z               00442e54 f   mfc42:MFC42.DLL
 0001:00041e5a       ??3@YAXPAX@Z               00442e5a f   mfc42:MFC42.DLL
 0001:00041e60       ?CreateControl@CWnd@@QAEHABU_GUID@@PBDKABUtagRECT@@PAV1@IPAVCFile@@HPAG@Z 00442e60 f   mfc42:MFC42.DLL
 0001:00041e66       ??1CWnd@@UAE@XZ            00442e66 f   mfc42:MFC42.DLL
 0001:00041e6c       ?InvokeHelper@CWnd@@QAAXJGGPAXPBEZZ 00442e6c f   mfc42:MFC42.DLL
 0001:00041e72       ??1CString@@QAE@XZ         00442e72 f   mfc42:MFC42.DLL
 0001:00041e78       ??0CString@@QAE@ABV0@@Z    00442e78 f   mfc42:MFC42.DLL
 0001:00041e7e       ??0CString@@QAE@XZ         00442e7e f   mfc42:MFC42.DLL
 0001:00041e84       ?DrawItem@CButton@@UAEXPAUtagDRAWITEMSTRUCT@@@Z 00442e84 f   mfc42:MFC42.DLL
 0001:00041e8a       ?OnChildNotify@CButton@@MAEHIIJPAJ@Z 00442e8a f   mfc42:MFC42.DLL
 0001:00041e90       ?GetRuntimeClass@CButton@@UBEPAUCRuntimeClass@@XZ 00442e90 f   mfc42:MFC42.DLL
 0001:00041e96       ?GetRuntimeClass@CStatic@@UBEPAUCRuntimeClass@@XZ 00442e96 f   mfc42:MFC42.DLL
 0001:00041e9c       ?DrawItem@CListCtrl@@UAEXPAUtagDRAWITEMSTRUCT@@@Z 00442e9c f   mfc42:MFC42.DLL
 0001:00041ea2       ?OnChildNotify@CListCtrl@@MAEHIIJPAJ@Z 00442ea2 f   mfc42:MFC42.DLL
 0001:00041ea8       ?GetMessageMap@CListCtrl@@MBEPBUAFX_MSGMAP@@XZ 00442ea8 f   mfc42:MFC42.DLL
 0001:00041eae       ?GetRuntimeClass@CListCtrl@@UBEPAUCRuntimeClass@@XZ 00442eae f   mfc42:MFC42.DLL
 0001:00041eb4       ?PreInitDialog@CDialog@@MAEXXZ 00442eb4 f   mfc42:MFC42.DLL
 0001:00041eba       ?OnCancel@CDialog@@MAEXXZ  00442eba f   mfc42:MFC42.DLL
 0001:00041ec0       ?OnOK@CDialog@@MAEXXZ      00442ec0 f   mfc42:MFC42.DLL
 0001:00041ec6       ?OnSetFont@CDialog@@UAEXPAVCFont@@@Z 00442ec6 f   mfc42:MFC42.DLL
 0001:00041ecc       ?DoModal@CDialog@@UAEHXZ   00442ecc f   mfc42:MFC42.DLL
 0001:00041ed2       ?SetOccDialogInfo@CDialog@@MAEHPAU_AFX_OCC_DIALOG_INFO@@@Z 00442ed2 f   mfc42:MFC42.DLL
 0001:00041ed8       ?CheckAutoCenter@CDialog@@UAEHXZ 00442ed8 f   mfc42:MFC42.DLL
 0001:00041ede       ?PreTranslateMessage@CDialog@@UAEHPAUtagMSG@@@Z 00442ede f   mfc42:MFC42.DLL
 0001:00041ee4       ?Create@CWnd@@UAEHPBD0KABUtagRECT@@PAV1@IPAUCCreateContext@@@Z 00442ee4 f   mfc42:MFC42.DLL
 0001:00041eea       ?OnCmdMsg@CDialog@@UAEHIHPAXPAUAFX_CMDHANDLERINFO@@@Z 00442eea f   mfc42:MFC42.DLL
 0001:00041ef0       ?GetRuntimeClass@CDialog@@UBEPAUCRuntimeClass@@XZ 00442ef0 f   mfc42:MFC42.DLL
 0001:00041ef6       ??1CStatic@@UAE@XZ         00442ef6 f   mfc42:MFC42.DLL
 0001:00041efc       ??1CButton@@UAE@XZ         00442efc f   mfc42:MFC42.DLL
 0001:00041f02       ??1CListCtrl@@UAE@XZ       00442f02 f   mfc42:MFC42.DLL
 0001:00041f08       ??1CDialog@@UAE@XZ         00442f08 f   mfc42:MFC42.DLL
 0001:00041f0e       ??0CDialog@@QAE@IPAVCWnd@@@Z 00442f0e f   mfc42:MFC42.DLL
 0001:00041f14       ?DDX_Control@@YGXPAVCDataExchange@@HAAVCWnd@@@Z 00442f14 f   mfc42:MFC42.DLL
 0001:00041f1a       ?FromHandle@CDC@@SGPAV1@PAUHDC__@@@Z 00442f1a f   mfc42:MFC42.DLL
 0001:00041f20       ?InsertItem@CListCtrl@@QAEHIHPBDIIHJ@Z 00442f20 f   mfc42:MFC42.DLL
 0001:00041f26       ?InsertColumn@CListCtrl@@QAEHHPBDHHH@Z 00442f26 f   mfc42:MFC42.DLL
 0001:00041f2c       ?OnInitDialog@CDialog@@UAEHXZ 00442f2c f   mfc42:MFC42.DLL
 0001:00041f32       ?MessageBoxA@CWnd@@QAEHPBD0I@Z 00442f32 f   mfc42:MFC42.DLL
 0001:00041f38       ?Default@CWnd@@IAEJXZ      00442f38 f   mfc42:MFC42.DLL
 0001:00041f3e       ?SetItemText@CListCtrl@@QAEHHHPBD@Z 00442f3e f   mfc42:MFC42.DLL
 0001:00041f44       ??1CPaintDC@@UAE@XZ        00442f44 f   mfc42:MFC42.DLL
 0001:00041f4a       ??0CPaintDC@@QAE@PAVCWnd@@@Z 00442f4a f   mfc42:MFC42.DLL
 0001:00041f50       ?OnHelp@CWinApp@@IAEXXZ    00442f50 f   mfc42:MFC42.DLL
 0001:00041f56       ?WinHelpA@CWinApp@@UAEXKI@Z 00442f56 f   mfc42:MFC42.DLL
 0001:00041f5c       ?OnDDECommand@CWinApp@@UAEHPAD@Z 00442f5c f   mfc42:MFC42.DLL
 0001:00041f62       ?DoWaitCursor@CWinApp@@UAEXH@Z 00442f62 f   mfc42:MFC42.DLL
 0001:00041f68       ?DoMessageBox@CWinApp@@UAEHPBDII@Z 00442f68 f   mfc42:MFC42.DLL
 0001:00041f6e       ?SaveAllModified@CWinApp@@UAEHXZ 00442f6e f   mfc42:MFC42.DLL
 0001:00041f74       ?InitApplication@CWinApp@@UAEHXZ 00442f74 f   mfc42:MFC42.DLL
 0001:00041f7a       ?AddToRecentFileList@CWinApp@@UAEXPBD@Z 00442f7a f   mfc42:MFC42.DLL
 0001:00041f80       ?OpenDocumentFile@CWinApp@@UAEPAVCDocument@@PBD@Z 00442f80 f   mfc42:MFC42.DLL
 0001:00041f86       ?Delete@CWinThread@@UAEXXZ 00442f86 f   mfc42:MFC42.DLL
 0001:00041f8c       ?GetMainWnd@CWinThread@@UAEPAVCWnd@@XZ 00442f8c f   mfc42:MFC42.DLL
 0001:00041f92       ?ProcessMessageFilter@CWinThread@@UAEHHPAUtagMSG@@@Z 00442f92 f   mfc42:MFC42.DLL
 0001:00041f98       ?ProcessWndProcException@CWinApp@@UAEJPAVCException@@PBUtagMSG@@@Z 00442f98 f   mfc42:MFC42.DLL
 0001:00041f9e       ?ExitInstance@CWinApp@@UAEHXZ 00442f9e f   mfc42:MFC42.DLL
 0001:00041fa4       ?IsIdleMessage@CWinThread@@UAEHPAUtagMSG@@@Z 00442fa4 f   mfc42:MFC42.DLL
 0001:00041faa       ?OnIdle@CWinApp@@UAEHJ@Z   00442faa f   mfc42:MFC42.DLL
 0001:00041fb0       ?PumpMessage@CWinThread@@UAEHXZ 00442fb0 f   mfc42:MFC42.DLL
 0001:00041fb6       ?PreTranslateMessage@CWinThread@@UAEHPAUtagMSG@@@Z 00442fb6 f   mfc42:MFC42.DLL
 0001:00041fbc       ?Run@CWinApp@@UAEHXZ       00442fbc f   mfc42:MFC42.DLL
 0001:00041fc2       ?OnFinalRelease@CCmdTarget@@UAEXXZ 00442fc2 f   mfc42:MFC42.DLL
 0001:00041fc8       ?GetRuntimeClass@CWinApp@@UBEPAUCRuntimeClass@@XZ 00442fc8 f   mfc42:MFC42.DLL
 0001:00041fce       ??0CWinApp@@QAE@PBD@Z      00442fce f   mfc42:MFC42.DLL
 0001:00041fd4       ??1CWinApp@@UAE@XZ         00442fd4 f   mfc42:MFC42.DLL
 0001:00041fda       ?AfxEnableControlContainer@@YAXPAVCOccManager@@@Z 00442fda f   mfc42:MFC42.DLL
 0001:00041fe0       ?AfxEndThread@@YGXIH@Z     00442fe0 f   mfc42:MFC42.DLL
 0001:00041fe6       ?EnableWindow@CWnd@@QAEHH@Z 00442fe6 f   mfc42:MFC42.DLL
 0001:00041fec       ?GetRuntimeClass@CEdit@@UBEPAUCRuntimeClass@@XZ 00442fec f   mfc42:MFC42.DLL
 0001:00041ff2       ??1CFile@@UAE@XZ           00442ff2 f   mfc42:MFC42.DLL
 0001:00041ff8       ??1CEdit@@UAE@XZ           00442ff8 f   mfc42:MFC42.DLL
 0001:00041ffe       ??0CFile@@QAE@XZ           00442ffe f   mfc42:MFC42.DLL
 0001:00042004       ?SetWindowTextA@CWnd@@QAEXPBD@Z 00443004 f   mfc42:MFC42.DLL
 0001:0004200a       ?ReportError@CException@@UAEHII@Z 0044300a f   mfc42:MFC42.DLL
 0001:00042010       ?GetErrorMessage@CFileException@@UAEHPADIPAI@Z 00443010 f   mfc42:MFC42.DLL
 0001:00042016       ?GetRuntimeClass@CFileException@@UBEPAUCRuntimeClass@@XZ 00443016 f   mfc42:MFC42.DLL
 0001:0004201c       ?GetLocalTm@CTime@@QBEPAUtm@@PAU2@@Z 0044301c f   mfc42:MFC42.DLL
 0001:00042022       ?GetTickCount@CTime@@SG?AV1@XZ 00443022 f   mfc42:MFC42.DLL
 0001:00042028       ??4CString@@QAEABV0@PBD@Z  00443028 f   mfc42:MFC42.DLL
 0001:0004202e       ??0CException@@QAE@XZ      0044302e f   mfc42:MFC42.DLL
 0001:00042034       ?GetRuntimeClass@CObject@@UBEPAUCRuntimeClass@@XZ 00443034 f   mfc42:MFC42.DLL
 0001:0004203a       ?AfxBeginThread@@YGPAVCWinThread@@P6AIPAX@Z0HIKPAU_SECURITY_ATTRIBUTES@@@Z 0044303a f   mfc42:MFC42.DLL
 0001:00042040       ?AfxMessageBox@@YGHPBDII@Z 00443040 f   mfc42:MFC42.DLL
 0001:00042046       ?Find@CString@@QBEHD@Z     00443046 f   mfc42:MFC42.DLL
 0001:0004204c       ??4CString@@QAEABV0@ABV0@@Z 0044304c f   mfc42:MFC42.DLL
 0001:00042052       ?Mid@CString@@QBE?AV1@HH@Z 00443052 f   mfc42:MFC42.DLL
 0001:00042058       ?Left@CString@@QBE?AV1@H@Z 00443058 f   mfc42:MFC42.DLL
 0001:0004205e       ?Find@CString@@QBEHPBD@Z   0044305e f   mfc42:MFC42.DLL
 0001:00042064       ??0CString@@QAE@PBD@Z      00443064 f   mfc42:MFC42.DLL
 0001:0004206a       ?UpdateData@CWnd@@QAEHH@Z  0044306a f   mfc42:MFC42.DLL
 0001:00042070       ?Delete@CException@@QAEXXZ 00443070 f   mfc42:MFC42.DLL
 0001:00042076       ?Close@CFile@@UAEXXZ       00443076 f   mfc42:MFC42.DLL
 0001:0004207c       ?Write@CFile@@UAEXPBXI@Z   0044307c f   mfc42:MFC42.DLL
 0001:00042082       ?Open@CFile@@UAEHPBDIPAVCFileException@@@Z 00443082 f   mfc42:MFC42.DLL
 0001:00042088       ?Remove@CFile@@SGXPBD@Z    00443088 f   mfc42:MFC42.DLL
 0001:0004208e       ?ReleaseBuffer@CString@@QAEXH@Z 0044308e f   mfc42:MFC42.DLL
 0001:00042094       ??1CFileFind@@UAE@XZ       00443094 f   mfc42:MFC42.DLL
 0001:0004209a       ?GetBufferSetLength@CString@@QAEPADH@Z 0044309a f   mfc42:MFC42.DLL
 0001:000420a0       ?GetFileName@CFileFind@@UBE?AVCString@@XZ 004430a0 f   mfc42:MFC42.DLL
 0001:000420a6       ?FindNextFileA@CFileFind@@UAEHXZ 004430a6 f   mfc42:MFC42.DLL
 0001:000420ac       ?FindFile@CFileFind@@UAEHPBDK@Z 004430ac f   mfc42:MFC42.DLL
 0001:000420b2       ??0CFileFind@@QAE@XZ       004430b2 f   mfc42:MFC42.DLL
 0001:000420b8       ?GetWindowTextA@CWnd@@QBEXAAVCString@@@Z 004430b8 f   mfc42:MFC42.DLL
 0001:000420be       ___CxxFrameHandler         004430be f   msvcrt:MSVCRT.dll
 0001:000420d0       __purecall                 004430d0 f   msvcrt:MSVCRT.dll
 0001:000420d6       ??_M@YGXPAXIHP6EX0@Z@Z     004430d6 f   msvcrt:ehvecdtr.obj
 0001:00042156       ?__ArrayUnwind@@YGXPAXIHP6EX0@Z@Z 00443156 f   msvcrt:ehvecdtr.obj
 0001:000421ca       _fclose                    004431ca f   msvcrt:MSVCRT.dll
 0001:000421d0       _fopen                     004431d0 f   msvcrt:MSVCRT.dll
 0001:000421d6       _fread                     004431d6 f   msvcrt:MSVCRT.dll
 0001:000421dc       _fwrite                    004431dc f   msvcrt:MSVCRT.dll
 0001:000421e2       _fseek                     004431e2 f   msvcrt:MSVCRT.dll
 0001:000421e8       _ftell                     004431e8 f   msvcrt:MSVCRT.dll
 0001:000421ee       _fflush                    004431ee f   msvcrt:MSVCRT.dll
 0001:000421f4       _fputc                     004431f4 f   msvcrt:MSVCRT.dll
 0001:000421fa       _getc                      004431fa f   msvcrt:MSVCRT.dll
 0001:00042200       _sprintf                   00443200 f   msvcrt:MSVCRT.dll
 0001:00042206       __onexit                   00443206 f   msvcrt:atonexit.obj
 0001:00042232       _atexit                    00443232 f   msvcrt:atonexit.obj
 0001:00042250       __alloca_probe             00443250 f   msvcrt:chkstk.obj
 0001:00042250       __chkstk                   00443250 f   msvcrt:chkstk.obj
 0001:00042280       __aullshr                  00443280 f   msvcrt:ullshr.obj
 0001:000422a0       _ceil                      004432a0 f   msvcrt:MSVCRT.dll
 0001:000422a6       __ftol                     004432a6 f   msvcrt:MSVCRT.dll
 0001:000422ac       ??0type_info@@AAE@ABV0@@Z  004432ac f   msvcrt:ti_inst.obj
 0001:000422b7       ??_Etype_info@@UAEPAXI@Z   004432b7 f i msvcrt:ti_inst.obj
 0001:000422b7       ??_Gtype_info@@UAEPAXI@Z   004432b7 f i msvcrt:ti_inst.obj
 0001:000422d3       ??4type_info@@AAEAAV0@ABV0@@Z 004432d3 f   msvcrt:ti_inst.obj
 0001:000422d8       _exit                      004432d8 f   msvcrt:MSVCRT.dll
 0001:000422de       _fprintf                   004432de f   msvcrt:MSVCRT.dll
 0001:000422e4       _atoi                      004432e4 f   msvcrt:MSVCRT.dll
 0001:000422ea       __mkdir                    004432ea f   msvcrt:MSVCRT.dll
 0001:000422f0       _atof                      004432f0 f   msvcrt:MSVCRT.dll
 0001:000422f6       _fscanf                    004432f6 f   msvcrt:MSVCRT.dll
 0001:000422fc       __stricmp                  004432fc f   msvcrt:MSVCRT.dll
 0001:00042302       _strerror                  00443302 f   msvcrt:MSVCRT.dll
 0001:00042308       __errno                    00443308 f   msvcrt:MSVCRT.dll
 0001:0004230e       __rmdir                    0044330e f   msvcrt:MSVCRT.dll
 0001:00042314       __mbscmp                   00443314 f   msvcrt:MSVCRT.dll
 0001:0004231a       _clock                     0044331a f   msvcrt:MSVCRT.dll
 0001:00042320       _WinMainCRTStartup         00443320 f   msvcrt:crtexew.obj
 0001:0004247e       _free                      0044347e f   msvcrt:MSVCRT.dll
 0001:00042484       _malloc                    00443484 f   msvcrt:MSVCRT.dll
 0001:0004248a       _realloc                   0044348a f   msvcrt:MSVCRT.dll
 0001:00042490       _floor                     00443490 f   msvcrt:MSVCRT.dll
 0001:00042496       __CxxThrowException@8      00443496 f   msvcrt:MSVCRT.dll
 0001:0004249c       __mbsnbcpy                 0044349c f   msvcrt:MSVCRT.dll
 0001:000424a2       _calloc                    004434a2 f   msvcrt:MSVCRT.dll
 0001:000424a8       __mbslen                   004434a8 f   msvcrt:MSVCRT.dll
 0001:000424ae       __CIpow                    004434ae f   msvcrt:MSVCRT.dll
 0001:000424b4       _div                       004434b4 f   msvcrt:MSVCRT.dll
 0001:000424ba       __CIacos                   004434ba f   msvcrt:MSVCRT.dll
 0001:000424c0       __CIfmod                   004434c0 f   msvcrt:MSVCRT.dll
 0001:000424c6       _longjmp                   004434c6 f   msvcrt:MSVCRT.dll
 0001:000424cc       __setjmp3                  004434cc f   msvcrt:MSVCRT.dll
 0001:000424d2       ___CxxLongjmpUnwind@4      004434d2 f   msvcrt:MSVCRT.dll
 0001:000424d8       _printf                    004434d8 f   msvcrt:MSVCRT.dll
 0001:000424de       _strncpy                   004434de f   msvcrt:MSVCRT.dll
 0001:000424e4       _isprint                   004434e4 f   msvcrt:MSVCRT.dll
 0001:000424ea       _strncmp                   004434ea f   msvcrt:MSVCRT.dll
 0001:000424f0       _sscanf                    004434f0 f   msvcrt:MSVCRT.dll
 0001:000424f6       _getenv                    004434f6 f   msvcrt:MSVCRT.dll
 0001:000424fc       _memcpy                    004434fc f   msvcrt:MSVCRT.dll
 0001:00042502       _fabs                      00443502 f   msvcrt:MSVCRT.dll
 0001:00042508       _sqrt                      00443508 f   msvcrt:MSVCRT.dll
 0001:0004250e       _pow                       0044350e f   msvcrt:MSVCRT.dll
 0001:00042514       _memset                    00443514 f   msvcrt:MSVCRT.dll
 0001:0004251a       __except_handler3          0044351a f   msvcrt:MSVCRT.dll
 0001:00042520       ?terminate@@YAXXZ          00443520 f   msvcrt:MSVCRT.dll
 0001:00042526       ___dllonexit               00443526 f   msvcrt:MSVCRT.dll
 0001:0004252c       ??1type_info@@UAE@XZ       0044352c f   msvcrt:MSVCRT.dll
 0001:00042532       __exit                     00443532 f   msvcrt:MSVCRT.dll
 0001:00042538       __XcptFilter               00443538 f   msvcrt:MSVCRT.dll
 0001:0004253e       ___getmainargs             0044353e f   msvcrt:MSVCRT.dll
 0001:00042544       __initterm                 00443544 f   msvcrt:MSVCRT.dll
 0001:0004254a       __setdefaultprecision      0044354a f   msvcrt:fp8.obj
 0001:0004255c       ___setusermatherr          0044355c f   msvcrt:MSVCRT.dll
 0001:00042562       __matherr                  00443562 f   msvcrt:merr.obj
 0001:00042565       __setargv                  00443565 f   msvcrt:dllargv.obj
 0001:00042566       ___p__commode              00443566 f   msvcrt:MSVCRT.dll
 0001:0004256c       ___p__fmode                0044356c f   msvcrt:MSVCRT.dll
 0001:00042572       ___set_app_type            00443572 f   msvcrt:MSVCRT.dll
 0001:00042578       __controlfp                00443578 f   msvcrt:MSVCRT.dll
 0001:0004257e       _Sleep@4                   0044357e f   kernel32:KERNEL32.dll
 0001:00042584       _CopyFileA@12              00443584 f   kernel32:KERNEL32.dll
 0001:0004258a       _GetProcAddress@8          0044358a f   kernel32:KERNEL32.dll
 0001:00042590       _GetModuleHandleA@4        00443590 f   kernel32:KERNEL32.dll
 0001:00042596       _GlobalUnlock@4            00443596 f   kernel32:KERNEL32.dll
 0001:0004259c       _GlobalLock@4              0044359c f   kernel32:KERNEL32.dll
 0001:000425a2       _GlobalAlloc@8             004435a2 f   kernel32:KERNEL32.dll
 0001:000425a8       _GlobalSize@4              004435a8 f   kernel32:KERNEL32.dll
 0001:000425ae       _LockResource@4            004435ae f   kernel32:KERNEL32.dll
 0001:000425b4       _LoadResource@8            004435b4 f   kernel32:KERNEL32.dll
 0001:000425ba       _SizeofResource@8          004435ba f   kernel32:KERNEL32.dll
 0001:000425c0       _GetStartupInfoA@4         004435c0 f   kernel32:KERNEL32.dll
 0001:000425c6       _EnableWindow@8            004435c6 f   user32:USER32.dll
 0001:000425cc       _GetDC@4                   004435cc f   user32:USER32.dll
 0001:000425d2       _SendMessageA@16           004435d2 f   user32:USER32.dll
 0001:000425d8       _SetTimer@16               004435d8 f   user32:USER32.dll
 0001:000425de       _ReleaseDC@8               004435de f   user32:USER32.dll
 0001:000425e4       _GetIconInfo@8             004435e4 f   user32:USER32.dll
 0001:000425ea       _DrawTextA@20              004435ea f   user32:USER32.dll
 0001:000425f0       _CreateDIBitmap@24         004435f0 f   gdi32:GDI32.dll
 0001:000425f6       _DeleteDC@4                004435f6 f   gdi32:GDI32.dll
 0001:000425fc       _CreateDIBSection@24       004435fc f   gdi32:GDI32.dll
 0001:00042602       _CreateCompatibleDC@4      00443602 f   gdi32:GDI32.dll
 0001:00042608       _GetDIBits@28              00443608 f   gdi32:GDI32.dll
 0001:0004260e       _RealizePalette@4          0044360e f   gdi32:GDI32.dll
 0001:00042614       _SelectObject@8            00443614 f   gdi32:GDI32.dll
 0001:0004261a       _GetObjectA@12             0044361a f   gdi32:GDI32.dll
 0001:00042620       _DeleteObject@4            00443620 f   gdi32:GDI32.dll
 0001:00042626       _BitBlt@36                 00443626 f   gdi32:GDI32.dll
 0001:0004262c       _SetDIBitsToDevice@48      0044362c f   gdi32:GDI32.dll
 0001:00042632       _SetStretchBltMode@8       00443632 f   gdi32:GDI32.dll
 0001:00042638       _ExtSelectClipRgn@12       00443638 f   gdi32:GDI32.dll
 0001:0004263e       _CreateRectRgnIndirect@4   0044363e f   gdi32:GDI32.dll
 0001:00042644       _GetClipBox@8              00443644 f   gdi32:GDI32.dll
 0001:0004264a       _StretchBlt@44             0044364a f   gdi32:GDI32.dll
 0001:00042650       _SetBkColor@8              00443650 f   gdi32:GDI32.dll
 0001:00042656       _CreateBitmap@20           00443656 f   gdi32:GDI32.dll
 0001:0004265c       _CreateCompatibleBitmap@12 0044365c f   gdi32:GDI32.dll
 0001:00042662       _RectVisible@8             00443662 f   gdi32:GDI32.dll
 0001:00042668       _StretchDIBits@52          00443668 f   gdi32:GDI32.dll
 0001:0004266e       _SetBkMode@8               0044366e f   gdi32:GDI32.dll
 0001:00042674       _SetTextColor@8            00443674 f   gdi32:GDI32.dll
 0001:0004267a       _GetStockObject@4          0044367a f   gdi32:GDI32.dll
 0001:00042680       _CreateFontIndirectA@4     00443680 f   gdi32:GDI32.dll
 0001:00042686       _CombineRgn@16             00443686 f   gdi32:GDI32.dll
 0001:0004268c       _CreateRectRgn@16          0044368c f   gdi32:GDI32.dll
 0001:00042692       _SHGetPathFromIDListA@8    00443692 f   shell32:SHELL32.dll
 0001:00042698       _SHBrowseForFolderA@4      00443698 f   shell32:SHELL32.dll
 0001:0004269e       _SHGetMalloc@4             0044369e f   shell32:SHELL32.dll
 0001:000426a4       _SafeArrayUnaccessData@4   004436a4 f   oleaut32:OLEAUT32.dll
 0001:000426aa       _SafeArrayAccessData@8     004436aa f   oleaut32:OLEAUT32.dll
 0001:000426b0       ??0Init@ios_base@std@@QAE@XZ 004436b0 f   msvcprt:MSVCP60.dll
 0001:000426b6       ??1Init@ios_base@std@@QAE@XZ 004436b6 f   msvcprt:MSVCP60.dll
 0001:000426bc       ??0_Winit@std@@QAE@XZ      004436bc f   msvcprt:MSVCP60.dll
 0001:000426c2       ??1_Winit@std@@QAE@XZ      004436c2 f   msvcprt:MSVCP60.dll
 0001:000426c8       _WinMain@16                004436c8 f   mfcs42:appmodul.obj
 0001:000426e0       ?AfxInitialize@@YGHHK@Z    004436e0 f   mfcs42:appmodul.obj
 0001:00042720       __setmbcp                  00443720 f   msvcrt:MSVCRT.dll
 0001:00042726       ?AfxWinMain@@YGHPAUHINSTANCE__@@0PADH@Z 00443726 f   mfc42:MFC42.DLL
 0001:0004272c       ?AfxGetModuleState@@YGPAVAFX_MODULE_STATE@@XZ 0044372c f   mfc42:MFC42.DLL
 0002:00000020       ?classCAxisMediaControl@CAxisMediaControl@@2UCRuntimeClass@@B 00445020     axismediacontrol.obj
 0002:00000038       ??_7CAxisMediaControl@@6B@ 00445038     axismediacontrol.obj
 0002:000000f8       ?clsid@?1??GetClsid@CAxisMediaControl@@QAEABU_GUID@@XZ@4U3@B 004450f8     axismediacontrol.obj
 0002:00000108       ?messageMap@CCalibration@@1UAFX_MSGMAP@@B 00445108     Calibration.obj
 0002:00000110       ?_messageEntries@CCalibration@@0QBUAFX_MSGMAP_ENTRY@@B 00445110     Calibration.obj
 0002:00000158       ??_7CxFile@@6B@            00445158     Calibration.obj
 0002:00000188       ??_7CxIOFile@@6B@          00445188     Calibration.obj
 0002:000001b8       ??_7CxMemFile@@6B@         004451b8     Calibration.obj
 0002:000001e8       ??_7CxImage@@6B@           004451e8     Calibration.obj
 0002:000001ec       ??_7CCalibration@@6B@      004451ec     Calibration.obj
 0002:000002c4       ??_7CStatic@@6B@           004452c4     Calibration.obj
 0002:00000384       ??_7CButton@@6B@           00445384     Calibration.obj
 0002:00000448       ??_7CListCtrl@@6B@         00445448     Calibration.obj
 0002:00000510       ?messageMap@CCnt_trafficApp@@1UAFX_MSGMAP@@B 00445510     cnt_traffic.obj
 0002:00000518       ?_messageEntries@CCnt_trafficApp@@0QBUAFX_MSGMAP_ENTRY@@B 00445518     cnt_traffic.obj
 0002:00000548       ??_7CCnt_trafficApp@@6B@   00445548     cnt_traffic.obj
 0002:000005f0       ?messageMap@CCnt_trafficDlg@@1UAFX_MSGMAP@@B 004455f0     cnt_trafficDlg.obj
 0002:000005f8       ?_messageEntries@CCnt_trafficDlg@@0QBUAFX_MSGMAP_ENTRY@@B 004455f8     cnt_trafficDlg.obj
 0002:000006b8       ??_7CCnt_trafficDlg@@6B@   004456b8     cnt_trafficDlg.obj
 0002:00000790       ??_7CEdit@@6B@             00445790     cnt_trafficDlg.obj
 0002:00000850       __real@8@4002a000000000000000 00445850     cnt_trafficDlg.obj
 0002:00000858       ??_7CFileException@@6B@    00445858     cnt_trafficDlg.obj
 0002:00000874       ??_7CObject@@6B@           00445874     cnt_trafficDlg.obj
 0002:00000888       __real@8@3ffee666666666666800 00445888     cnt_trafficDlg.obj
 0002:00000890       __real@8@3ffbb851eb851eb85000 00445890     cnt_trafficDlg.obj
 0002:00000898       __real@8@3ffee8f5c28f5c28f800 00445898     cnt_trafficDlg.obj
 0002:000008a0       __real@8@3ff5f0be96e21dacc800 004458a0     cnt_trafficDlg.obj
 0002:000008a8       __real@4@00000000000000000000 004458a8     cnt_trafficDlg.obj
 0002:000008b0       __real@8@3ffea666666666666800 004458b0     cnt_trafficDlg.obj
 0002:000008b8       __real@4@3ff9a72f05397829c800 004458b8     cnt_trafficDlg.obj
 0002:000008c0       __real@8@3ffc9999999999999800 004458c0     cnt_trafficDlg.obj
 0002:000008c8       __real@8@3ffb9999999999999800 004458c8     cnt_trafficDlg.obj
 0002:000008d0       __real@8@3ffaccccccccccccd000 004458d0     cnt_trafficDlg.obj
 0002:000008d8       __real@8@3ff9ccccccccccccd000 004458d8     cnt_trafficDlg.obj
 0002:000008e0       __real@8@3ffdccccccccccccd000 004458e0     cnt_trafficDlg.obj
 0002:000008e8       __real@8@3ffbccccccccccccd000 004458e8     cnt_trafficDlg.obj
 0002:000008f0       __real@8@3ffefc28f5c28f5c2800 004458f0     cnt_trafficDlg.obj
 0002:000008f8       __real@8@3ff8f5c28f5c28f5c000 004458f8     cnt_trafficDlg.obj
 0002:00000900       __real@8@3ffeccccccccccccd000 00445900     cnt_trafficDlg.obj
 0002:00000908       ??_7COperadorBlob@@6B@     00445908     cnt_trafficDlg.obj
 0002:00000914       ??_7CBlobGetArea@@6B@      00445914     cnt_trafficDlg.obj
 0002:00000920       ??_7CBlobGetMean@@6B@      00445920     cnt_trafficDlg.obj
 0002:0000092c       __real@4@4004c800000000000000 0044592c     cnt_trafficDlg.obj
 0002:00000930       __real@4@3fff8000000000000000 00445930     cnt_trafficDlg.obj
 0002:00000938       __real@8@3ffd8000000000000000 00445938     cnt_trafficDlg.obj
 0002:00000940       __real@8@3ffe8000000000000000 00445940     cnt_trafficDlg.obj
 0002:00000948       __real@4@4002a000000000000000 00445948     cnt_trafficDlg.obj
 0002:0000094c       ??_7CTracking@@6B@         0044594c     tracking.obj
 0002:00000950       __real@4@3fe995217cb0fbcdd000 00445950     tracking.obj
 0002:00000954       __real@4@3ff583126e978d4fe000 00445954     tracking.obj
 0002:00000958       __real@8@4000e000000000000000 00445958     tracking.obj
 0002:00000960       __real@4@4000c000000000000000 00445960     tracking.obj
 0002:00000964       __real@4@3ffeaaaaaaaaaaaaa800 00445964     tracking.obj
 0002:00000968       __real@4@3ffdaaaaaaaaaaaaa800 00445968     tracking.obj
 0002:00000980       __real@8@40049d7af5ebd7af6000 00445980     cximage:ximainfo.obj
 0002:00000988       __real@4@4001bfae530000000000 00445988     cximage:ximainfo.obj
 0002:00000990       __real@8@3ff9d013a92a30553800 00445990     cximage:ximawnd.obj
 0002:00000998       __real@4@3ffe8000000000000000 00445998     cximage:ximawnd.obj
 0002:000009a0       __real@8@3ffd95f5ad96a6a01000 004459a0     cximage:ximawnd.obj
 0002:000009a8       __real@8@00000000000000000000 004459a8     cximage:ximawnd.obj
 0002:000009b0       __real@8@3fff8000000000000000 004459b0     cximage:ximawnd.obj
 0002:000009b8       __real@4@40078000000000000000 004459b8     cximage:ximapal.obj
 0002:000009bc       ??_7CxImageJPG@@6B@        004459bc     cximage:ximaenc.obj
 0002:000009c0       ??_7CxImageGIF@@6B@        004459c0     cximage:ximaenc.obj
 0002:000009c4       ??_7CxImageBMP@@6B@        004459c4     cximage:ximaenc.obj
 0002:000009c8       __real@8@40008000000000000000 004459c8     cximage:ximasel.obj
 0002:000009d0       __real@8@3ff8b60b60b60b60b800 004459d0     cximage:ximatran.obj
 0002:000009d8       __real@4@4008fa00000000000000 004459d8     cximage:ximatran.obj
 0002:000009e0       __real@8@4004e52ee0d31e0fc000 004459e0     cximage:ximatran.obj
 0002:000009e8       __real@8@3ff2d1b71758e2196800 004459e8     cximage:ximatran.obj
 0002:000009f0       __real@8@3ffca2f9839cf27b4000 004459f0     cximage:ximatran.obj
 0002:00000b48       __real@4@4006ff00000000000000 00445b48     cximage:ximaint.obj
 0002:00000b4c       __real@4@3ffcaaaaab0000000000 00445b4c     cximage:ximaint.obj
 0002:00000b50       __real@4@4001c000000000000000 00445b50     cximage:ximaint.obj
 0002:00000b54       __real@4@40018000000000000000 00445b54     cximage:ximaint.obj
 0002:00000b58       __real@4@40008000000000000000 00445b58     cximage:ximaint.obj
 0002:00000b5c       __real@4@bfff8000000000000000 00445b5c     cximage:ximaint.obj
 0002:00000b60       __real@4@4001a000000000000000 00445b60     cximage:ximaint.obj
 0002:00000b64       __real@4@40028000000000000000 00445b64     cximage:ximaint.obj
 0002:00000b68       __real@4@4000c90fdb0000000000 00445b68     cximage:ximaint.obj
 0002:00000b6c       __real@4@bffe8000000000000000 00445b6c     cximage:ximaint.obj
 0002:00000b70       __real@4@c0008000000000000000 00445b70     cximage:ximaint.obj
 0002:00000b74       __real@4@3ffeeb851f0000000000 00445b74     cximage:ximaint.obj
 0002:00000b78       __real@4@3ffdd70a3d0000000000 00445b78     cximage:ximaint.obj
 0002:00000b7c       __real@4@3ffba3d70a0000000000 00445b7c     cximage:ximaint.obj
 0002:00000b80       __real@4@4001c90fdb0000000000 00445b80     cximage:ximaint.obj
 0002:00000b88       __real@8@40028000000000000000 00445b88     cximage:ximaint.obj
 0002:00000b90       __real@8@bfff8000000000000000 00445b90     cximage:ximaint.obj
 0002:00000b98       __real@4@3ffec90fdb0000000000 00445b98     cximage:ximaint.obj
 0002:00000ba0       __real@8@3ffecc422a0000000000 00445ba0     cximage:ximaint.obj
 0002:00000ba8       __real@4@3ffec000000000000000 00445ba8     cximage:ximaint.obj
 0002:00000bac       __real@4@3fffc000000000000000 00445bac     cximage:ximaint.obj
 0002:00000bb0       __real@4@bfffc000000000000000 00445bb0     cximage:ximaint.obj
 0002:00000bb4       __real@4@4000d555550000000000 00445bb4     cximage:ximaint.obj
 0002:00000bb8       __real@4@3ffdc71c720000000000 00445bb8     cximage:ximaint.obj
 0002:00000bbc       __real@4@3ffee38e390000000000 00445bbc     cximage:ximaint.obj
 0002:00000bc0       __real@4@3fff9555550000000000 00445bc0     cximage:ximaint.obj
 0002:00000bc4       __real@4@3fffe38e390000000000 00445bc4     cximage:ximaint.obj
 0002:00000bc8       __real@4@c000d555550000000000 00445bc8     cximage:ximaint.obj
 0002:00000bcc       __real@4@bffdc71c720000000000 00445bcc     cximage:ximaint.obj
 0002:00000bd0       __real@8@c0008000000000000000 00445bd0     cximage:ximaint.obj
 0002:00000bd8       __real@4@c001a000000000000000 00445bd8     cximage:ximaint.obj
 0002:00000c5c       _jpeg_std_message_table    00445c5c     Jpeg:Jerror.obj
 0002:00001210       _jpeg_natural_order        00446210     Jpeg:Jutils.obj
 0002:0000161c       __real@4@3fff8a8bd40000000000 0044661c     Jpeg:Jidctflt.obj
 0002:00001620       __real@4@4000a73d750000000000 00446620     Jpeg:Jidctflt.obj
 0002:00001624       __real@4@3fffec835e0000000000 00446624     Jpeg:Jidctflt.obj
 0002:00001628       __real@4@3fffb504f30000000000 00446628     Jpeg:Jidctflt.obj
 0002:000016f0       __real@4@400d8001000000000000 004466f0     Jpeg:Jcdctmgr.obj
 0002:000016f4       __real@4@3fffa73d750000000000 004466f4     Jpeg:Jfdctflt.obj
 0002:000016f8       __real@4@3ffe8a8bd40000000000 004466f8     Jpeg:Jfdctflt.obj
 0002:000016fc       __real@4@3ffdc3ef150000000000 004466fc     Jpeg:Jfdctflt.obj
 0002:00001700       __real@4@3ffeb504f30000000000 00446700     Jpeg:Jfdctflt.obj
 0002:00001708       __real@8@40018000000000000000 00446708     cvblobslib:blob.obj
 0002:00001710       __real@8@40038000000000000000 00446710     cvblobslib:blob.obj
 0002:00001718       __real@8@4002c90fdaa22168c000 00446718     cvblobslib:blob.obj
 0002:00001720       ??_7CBlobGetXCenter@@6B@   00446720     cvblobslib:blob.obj
 0002:0000172c       ??_7CBlobGetYCenter@@6B@   0044672c     cvblobslib:blob.obj
 0002:00001738       ??_7CBlobGetHullPerimeter@@6B@ 00446738     cvblobslib:blob.obj
 0002:00001744       ??_7CBlobResult@@6B@       00446744     cvblobslib:BlobResult.obj
 0002:00001748       ??_7CBlobGetPerimeter@@6B@ 00446748     cvblobslib:BlobResult.obj
 0002:00001754       ??_7CBlobGetExterior@@6B@  00446754     cvblobslib:BlobResult.obj
 0002:00001760       ??_7CBlobGetCompactness@@6B@ 00446760     cvblobslib:BlobResult.obj
 0002:0000176c       ??_7CBlobGetLength@@6B@    0044676c     cvblobslib:BlobResult.obj
 0002:00001778       ??_7CBlobGetExternPerimeter@@6B@ 00446778     cvblobslib:BlobResult.obj
 0002:00001788       __real@8@3fd0b424dc35095cd800 00446788     cvblobslib:BlobExtraction.obj
 0002:00001790       __real@8@bfd0b424dc35095cd800 00446790     cvblobslib:BlobExtraction.obj
 0002:00001798       __real@8@bffe95f619980c41d000 00446798     cvblobslib:BlobExtraction.obj
 0002:000017a0       __real@8@bfff95f619980c41d000 004467a0     cvblobslib:BlobExtraction.obj
 0002:000017a8       _IID_IDocHostUIHandlerDispatch 004467a8     mfcs42:stdafx.obj
 0002:000017b8       _IID_IInternalConnection   004467b8     mfcs42:stdafx.obj
 0002:000017c8       _IID_IAxWinAmbientDispatch 004467c8     mfcs42:stdafx.obj
 0002:000017d8       _IID_IAxWinHostWindow      004467d8     mfcs42:stdafx.obj
 0002:000017e8       _IID_IRegistrar            004467e8     mfcs42:stdafx.obj
 0002:000017f8       _CLSID_Registrar           004467f8     mfcs42:stdafx.obj
 0002:00001808       _LIBID_ATLLib              00446808     mfcs42:stdafx.obj
 0002:00001838       ??_7type_info@@6B@         00446838     msvcrt:ti_inst.obj
 0002:00001850       ??_R1A@?0A@A@type_info@@8  00446850     msvcrt:ti_inst.obj
 0002:00001868       ??_R2type_info@@8          00446868     msvcrt:ti_inst.obj
 0002:00001870       ??_R3type_info@@8          00446870     msvcrt:ti_inst.obj
 0002:00001880       ??_R4type_info@@6B@        00446880     msvcrt:ti_inst.obj
 0002:000023c0       __CT??_R0PAX@84            004473c0     cximage:ximawnd.obj
 0002:000023e0       __CT??_R0PAD@84            004473e0     cximage:ximawnd.obj
 0002:00002400       __CTA2PAD                  00447400     cximage:ximawnd.obj
 0002:00002410       __TI2PAD                   00447410     cximage:ximawnd.obj
 0002:00003130       __CT??_R0H@84              00448130     cvblobslib:BlobResult.obj
 0002:00003150       __CTA1H                    00448150     cvblobslib:BlobResult.obj
 0002:00003158       __TI1H                     00448158     cvblobslib:BlobResult.obj
 0003:00000000       ___xc_a                    0044d000     msvcrt:cinitexe.obj
 0003:0000001c       ___xc_z                    0044d01c     msvcrt:cinitexe.obj
 0003:00000020       ___xi_a                    0044d020     msvcrt:cinitexe.obj
 0003:00000024       ___xi_z                    0044d024     msvcrt:cinitexe.obj
 0003:000000f0       ??_C@_0BC@PDPE@CAxisMediaControl?$AA@ 0044d0f0     axismediacontrol.obj
 0003:00000104       ??_C@_0N@KMPN@Bottom?9right?$AA@ 0044d104     Calibration.obj
 0003:00000114       ??_C@_09LFJF@Top?9right?$AA@ 0044d114     Calibration.obj
 0003:00000120       ??_C@_08KAHI@Top?9left?$AA@ 0044d120     Calibration.obj
 0003:0000012c       ??_C@_0M@MIEM@Bottom?9left?$AA@ 0044d12c     Calibration.obj
 0003:00000138       ??_C@_05GJGE@Point?$AA@    0044d138     Calibration.obj
 0003:00000140       ??_C@_06NILB@Corner?$AA@   0044d140     Calibration.obj
 0003:00000148       ??_C@_0BK@GANE@Point?5is?5out?5of?5boundary?$CB?$AA@ 0044d148     Calibration.obj
 0003:00000164       ??_C@_0L@GEDM@?$CFs?$CFd?$CFs?$CFd?$CFs?$AA@ 0044d164     Calibration.obj
 0003:00000170       ??_C@_01GFI@?$CI?$AA@      0044d170     Calibration.obj
 0003:00000174       ??_C@_01KMAE@?0?$AA@       0044d174     Calibration.obj
 0003:00000178       ??_C@_01KMMP@?$CJ?$AA@     0044d178     Calibration.obj
 0003:0000017c       ??_C@_0DD@LDOG@free?5disk?5space?5?$DN?5?$CFd?5MB?0?5garbage@ 0044d17c     cnt_trafficDlg.obj
 0003:000001b0       ??_C@_02MECO@?$CFd?$AA@    0044d1b0     cnt_trafficDlg.obj
 0003:000001b4       ??_C@_0CC@KDKH@Garbage?5collection?5trigger?3?5?$CFd?5G@ 0044d1b4     cnt_trafficDlg.obj
 0003:000001d8       ??_C@_0BA@CKPL@Capture?5Dir?3?5?$CFs?$AA@ 0044d1d8     cnt_trafficDlg.obj
 0003:000001e8       ??_C@_0O@COFP@Stats?5Dir?3?5?$CFs?$AA@ 0044d1e8     cnt_trafficDlg.obj
 0003:000001f8       ??_C@_0M@EEFJ@Log?5Dir?3?5?$CFs?$AA@ 0044d1f8     cnt_trafficDlg.obj
 0003:00000204       ??_C@_0P@NKGE@Program?5starts?$AA@ 0044d204     cnt_trafficDlg.obj
 0003:00000214       ??_C@_01PLJA@0?$AA@        0044d214     cnt_trafficDlg.obj
 0003:00000218       ??_C@_05GLKL@Total?$AA@    0044d218     cnt_trafficDlg.obj
 0003:00000220       ??_C@_09EJNH@Heavy?1Bus?$AA@ 0044d220     cnt_trafficDlg.obj
 0003:0000022c       ??_C@_05DOFP@Light?$AA@    0044d22c     cnt_trafficDlg.obj
 0003:00000234       ??_C@_03BBLC@Car?$AA@      0044d234     cnt_trafficDlg.obj
 0003:00000238       ??_C@_09LJLN@Motorbike?$AA@ 0044d238     cnt_trafficDlg.obj
 0003:00000244       ??_C@_05HCNL@Count?$AA@    0044d244     cnt_trafficDlg.obj
 0003:0000024c       ??_C@_04FCOP@Type?$AA@     0044d24c     cnt_trafficDlg.obj
 0003:00000254       ??_C@_0BD@KGP@Mask?5not?5available?$AA@ 0044d254     cnt_trafficDlg.obj
 0003:00000268       ??_C@_0CP@MNBM@?$CFs?2TMS?9OB?9OVC?901_aeslog_?$CFd?$CF02d?$CF0@ 0044d268     cnt_trafficDlg.obj
 0003:00000298       ??_C@_0O@IJOD@Program?5stops?$AA@ 0044d298     cnt_trafficDlg.obj
 0003:000002a8       ??_C@_0BH@IAFL@Cannot?5open?5directory?$CB?$AA@ 0044d2a8     cnt_trafficDlg.obj
 0003:000002c0       ??_C@_0BL@DMKM@Error?5in?5selecting?5a?5path?$CB?$AA@ 0044d2c0     cnt_trafficDlg.obj
 0003:000002dc       ??_C@_0BM@BDFN@Select?5folder?5for?5sequences?$AA@ 0044d2dc     cnt_trafficDlg.obj
 0003:000002f8       ??_R0PAVCOleDispatchException@@@8 0044d2f8     cnt_trafficDlg.obj
 0003:0000031c       ??_C@_0M@OOKC@?$CFs?2?$CI?$CFd?$CJ?4jpg?$AA@ 0044d31c     cnt_trafficDlg.obj
 0003:00000328       ??_C@_0N@LAOF@?$CFs?2?$CF0?45d?4jpg?$AA@ 0044d328     cnt_trafficDlg.obj
 0003:00000338       ??_C@_08BJPP@Failure?4?$AA@ 0044d338     cnt_trafficDlg.obj
 0003:00000344       ??_C@_0BE@OJAL@Invalid?5parameters?4?$AA@ 0044d344     cnt_trafficDlg.obj
 0003:00000358       ??_C@_0BH@JPIH@Learning?5background?4?4?4?$AA@ 0044d358     cnt_trafficDlg.obj
 0003:00000370       ??_C@_07LMLG@Courier?$AA@  0044d370     cnt_trafficDlg.obj
 0003:00000378       ??_C@_0L@LJDN@v_count?$DN?$CFd?$AA@ 0044d378     cnt_trafficDlg.obj
 0003:00000384       ??_C@_0BI@LBEA@?$CFs?2?4?4?2v_count?2?$CF0?45d?4jpg?$AA@ 0044d384     cnt_trafficDlg.obj
 0003:0000039c       ??_C@_02DILL@?$CFs?$AA@    0044d39c     cnt_trafficDlg.obj
 0003:000003a0       ??_C@_0O@JBMF@Frame?5?$DN?5?$CF0?45d?$AA@ 0044d3a0     cnt_trafficDlg.obj
 0003:000003b0       ??_C@_0BD@KHMG@Camera?5reconnected?$AA@ 0044d3b0     cnt_trafficDlg.obj
 0003:000003c4       ??_C@_0BE@JAFB@Camera?5disconnected?$AA@ 0044d3c4     cnt_trafficDlg.obj
 0003:000003d8       ??_C@_0BE@KNOE@?$CFs?2?4?4?2cca?2?$CF0?45d?4jpg?$AA@ 0044d3d8     cnt_trafficDlg.obj
 0003:000003ec       ??_C@_0BH@PHJ@?$CFs?2?4?4?2cca_in?2?$CF0?45d?4jpg?$AA@ 0044d3ec     cnt_trafficDlg.obj
 0003:00000404       ??_C@_0N@EKBC@CBlobGetArea?$AA@ 0044d404     cnt_trafficDlg.obj
 0003:00000414       ??_C@_0N@DBDG@CBlobGetMean?$AA@ 0044d414     cnt_trafficDlg.obj
 0003:00000424       ??_C@_0BI@FIG@Frame?$DN?5?$CFd?7N_CLUSTER?$DN?5?$CFd?$AA@ 0044d424     cnt_trafficDlg.obj
 0003:0000043c       ??_C@_0BF@CLNL@?$CFs?2?4?4?2fig1?2?$CF0?45d?4jpg?$AA@ 0044d43c     cnt_trafficDlg.obj
 0003:00000454       ??_C@_0BF@BEEL@?$CFs?2?4?4?2fig2?2?$CF0?45d?4jpg?$AA@ 0044d454     cnt_trafficDlg.obj
 0003:0000046c       ??_C@_0BJ@LEIK@?$CFd?7?$CFd?6?$CFd?7?$CFd?6?$CFd?7?$CFd?6?$CFd?7?$CFd?6?$AA@ 0044d46c     cnt_trafficDlg.obj
 0003:00000488       ??_C@_01LLF@w?$AA@         0044d488     cnt_trafficDlg.obj
 0003:0000048c       ??_C@_01POCP@?7?$AA@       0044d48c     cnt_trafficDlg.obj
 0003:00000490       ??_C@_0BD@JAGO@Please?5select?5ROI?4?$AA@ 0044d490     cnt_trafficDlg.obj
 0003:000004a4       ??_C@_01LHO@r?$AA@         0044d4a4     cnt_trafficDlg.obj
 0003:000004a8       ??_C@_06JFBO@OUTBOX?$AA@   0044d4a8     cnt_trafficDlg.obj
 0003:000004b0       ??_C@_07MDMO@TFRAMES?$AA@  0044d4b0     cnt_trafficDlg.obj
 0003:000004b8       ??_C@_03JOIO@TOP?$AA@      0044d4b8     cnt_trafficDlg.obj
 0003:000004bc       ??_C@_08ODPL@ROI_TEXT?$AA@ 0044d4bc     cnt_trafficDlg.obj
 0003:000004c8       ??_C@_09NHCI@ROI_IMAGE?$AA@ 0044d4c8     cnt_trafficDlg.obj
 0003:000004d4       ??_C@_0CC@PHAO@http?3?1?1?$CFs?1axis?9cgi?1mjpg?1video?4cg@ 0044d4d4     cnt_trafficDlg.obj
 0003:000004f8       ??_C@_0L@GHJD@IP_ADDRESS?$AA@ 0044d4f8     cnt_trafficDlg.obj
 0003:00000504       ??_C@_0BA@LCMC@DISK_SPACE_LEFT?$AA@ 0044d504     cnt_trafficDlg.obj
 0003:00000514       ??_C@_0N@EAAK@MAX_CCA_BLOB?$AA@ 0044d514     cnt_trafficDlg.obj
 0003:00000524       ??_C@_0M@PEL@MAX_CLUSTER?$AA@ 0044d524     cnt_trafficDlg.obj
 0003:00000530       ??_C@_0BA@LOMH@DELTA_THRESHOLD?$AA@ 0044d530     cnt_trafficDlg.obj
 0003:00000540       ??_C@_0P@FFJF@EDGE_THRESHOLD?$AA@ 0044d540     cnt_trafficDlg.obj
 0003:00000550       ??_C@_0BF@DOLF@FRAME_DIFF_THRESHOLD?$AA@ 0044d550     cnt_trafficDlg.obj
 0003:00000568       ??_C@_0BB@LPAM@MAXDISTD_C_COEFF?$AA@ 0044d568     cnt_trafficDlg.obj
 0003:0000057c       ??_C@_09JDPI@CCA_SIZE2?$AA@ 0044d57c     cnt_trafficDlg.obj
 0003:00000588       ??_C@_09GMEB@CCA_SIZE1?$AA@ 0044d588     cnt_trafficDlg.obj
 0003:00000594       ??_C@_0BJ@ONBH@KERNEL_HALF_HEIGHT_COEFF?$AA@ 0044d594     cnt_trafficDlg.obj
 0003:000005b0       ??_C@_0BI@COGE@KERNEL_HALF_WIDTH_COEFF?$AA@ 0044d5b0     cnt_trafficDlg.obj
 0003:000005c8       ??_C@_0BD@FIDD@LIGHT_LENGTH_COEFF?$AA@ 0044d5c8     cnt_trafficDlg.obj
 0003:000005dc       ??_C@_0BB@BBFK@CAR_LENGTH_COEFF?$AA@ 0044d5dc     cnt_trafficDlg.obj
 0003:000005f0       ??_C@_0BB@DMPC@MTB_LENGTH_COEFF?$AA@ 0044d5f0     cnt_trafficDlg.obj
 0003:00000604       ??_C@_0P@FJNG@?$CFc?3?2TM_Capture?$AA@ 0044d604     cnt_trafficDlg.obj
 0003:00000614       ??_C@_0P@MGKD@TM_CAPTURE_DIR?$AA@ 0044d614     cnt_trafficDlg.obj
 0003:00000624       ??_C@_0N@FHLE@?$CFc?3?2TM_Stats?$AA@ 0044d624     cnt_trafficDlg.obj
 0003:00000634       ??_C@_0N@GIHE@TM_STATS_DIR?$AA@ 0044d634     cnt_trafficDlg.obj
 0003:00000644       ??_C@_0L@MIDG@?$CFc?3?2TM_Log?$AA@ 0044d644     cnt_trafficDlg.obj
 0003:00000650       ??_C@_0L@CLIG@TM_LOG_DIR?$AA@ 0044d650     cnt_trafficDlg.obj
 0003:0000065c       ??_C@_05JKGE@?$CFs?5?$CFs?$AA@ 0044d65c     cnt_trafficDlg.obj
 0003:00000664       ??_C@_0BJ@LDGK@No?5parameter?5file?5found?$CB?$AA@ 0044d664     cnt_trafficDlg.obj
 0003:00000680       ??_C@_0P@JIGB@parameters?4txt?$AA@ 0044d680     cnt_trafficDlg.obj
 0003:00000690       ??_C@_0M@ELOI@?$CFs?2init?4jpg?$AA@ 0044d690     cnt_trafficDlg.obj
 0003:0000069c       ??_C@_0BO@DHFF@Connection?5to?5IP?5camera?5fails?$AA@ 0044d69c     cnt_trafficDlg.obj
 0003:000006bc       ??_C@_0CJ@LGOD@No?5camera?5found?4?5Please?5check?5IP@ 0044d6bc     cnt_trafficDlg.obj
 0003:000006e8       ??_C@_0P@MENM@Access?5denied?4?$AA@ 0044d6e8     cnt_trafficDlg.obj
 0003:000006f8       ??_C@_0O@LEKM@mjpeg?9unicast?$AA@ 0044d6f8     cnt_trafficDlg.obj
 0003:00000708       ??_C@_0O@IDAP@?$CFs?2?4?4?2v_count?$AA@ 0044d708     cnt_trafficDlg.obj
 0003:00000718       ??_C@_0N@LBLK@?$CFs?2?4?4?2cca_in?$AA@ 0044d718     cnt_trafficDlg.obj
 0003:00000728       ??_C@_09GDFE@?$CFs?2?4?4?2cca?$AA@ 0044d728     cnt_trafficDlg.obj
 0003:00000734       ??_C@_0L@CCKA@?$CFs?2?4?4?2fig2?$AA@ 0044d734     cnt_trafficDlg.obj
 0003:00000740       ??_C@_0L@NNBJ@?$CFs?2?4?4?2fig1?$AA@ 0044d740     cnt_trafficDlg.obj
 0003:00000750       ??_R0PAVCException@@@8     0044d750     cnt_trafficDlg.obj
 0003:0000076c       ??_C@_0BN@IFLK@CCnt_trafficDlg?3?3writeLog?5?$CFs?$AA@ 0044d76c     cnt_trafficDlg.obj
 0003:0000078c       ??_C@_0P@INAO@?$CF02d?3?$CF02d?3?$CF02d?$AA@ 0044d78c     cnt_trafficDlg.obj
 0003:0000079c       ??_C@_0BH@LOFH@?$CFs?2TM_?$CFd_?$CF02d_?$CF02d?4txt?$AA@ 0044d79c     cnt_trafficDlg.obj
 0003:000007b4       ??_C@_07PHOO@?$CFs?2imgs?$AA@ 0044d7b4     cnt_trafficDlg.obj
 0003:000007bc       ??_C@_0BI@NKLN@?$CFs?2_?$CF04d_?$CF02d_?$CF02d_?$CF02d?$AA@ 0044d7bc     cnt_trafficDlg.obj
 0003:000007d4       ??_C@_0CE@KPJI@CCnt_trafficDlg?3?3updateUpTime?$CI1?$CJ@ 0044d7d4     cnt_trafficDlg.obj
 0003:000007f8       ??_C@_0BP@BLEO@CCnt_trafficDlg?3?3WriteStats?5?$CFs?$AA@ 0044d7f8     cnt_trafficDlg.obj
 0003:00000818       ??_C@_0BC@ICKN@GetDiskFreeSpaceA?$AA@ 0044d818     cnt_trafficDlg.obj
 0003:0000082c       ??_C@_0BE@ONFO@GetDiskFreeSpaceExA?$AA@ 0044d82c     cnt_trafficDlg.obj
 0003:00000840       ??_C@_0N@DOLF@Kernel32?4dll?$AA@ 0044d840     cnt_trafficDlg.obj
 0003:00000850       ??_C@_0CI@CIHE@CCnt_trafficDlg?3?3DeleteFirstFold@ 0044d850     cnt_trafficDlg.obj
 0003:00000878       ??_C@_0BJ@DGG@Deleted?5?$CFd?5files?5from?5?$CFs?$AA@ 0044d878     cnt_trafficDlg.obj
 0003:00000894       ??_C@_06HNNJ@?$CFs?3?5?$CFs?$AA@ 0044d894     cnt_trafficDlg.obj
 0003:0000089c       ??_C@_0BF@EKCN@Deleted?5directory?5?$CFs?$AA@ 0044d89c     cnt_trafficDlg.obj
 0003:000008b4       ??_C@_05KEJO@?$CFs?2?$CFs?$AA@ 0044d8b4     cnt_trafficDlg.obj
 0003:000008bc       ??_C@_02OOND@?4?4?$AA@     0044d8bc     cnt_trafficDlg.obj
 0003:000008c0       ??_C@_01PJCK@?4?$AA@       0044d8c0     cnt_trafficDlg.obj
 0003:000008c4       ??_C@_06BEFO@?$CFs?2?$CK?4?$CK?$AA@ 0044d8c4     cnt_trafficDlg.obj
 0003:000008cc       ??_C@_0BN@CAAP@Edge?5threshold?5changed?5to?5?$CFd?$AA@ 0044d8cc     cnt_trafficDlg.obj
 0003:000008ec       ??_C@_0N@GCLF@UNCLASSIFIED?$AA@ 0044d8ec     tracking.obj
 0003:000008fc       ??_C@_05FBHK@LIGHT?$AA@    0044d8fc     tracking.obj
 0003:00000904       ??_C@_05HODB@HEAVY?$AA@    0044d904     tracking.obj
 0003:0000090c       ??_C@_03FOIC@BUS?$AA@      0044d90c     tracking.obj
 0003:00000910       ??_C@_03JGAA@CAR?$AA@      0044d910     tracking.obj
 0003:00000914       ??_C@_03GFBL@MTB?$AA@      0044d914     tracking.obj
 0003:00000918       ??_C@_06KOKD@?$CFdkm?1h?$AA@ 0044d918     tracking.obj
 0003:00000920       ??_C@_04OLJN@?$CF?42d?$AA@ 0044d920     tracking.obj
 0003:00000928       ??_C@_09KJKN@HEAVY?1BUS?$AA@ 0044d928     tracking.obj
 0003:00000934       ??_C@_0CK@OBOL@?$CF02d?1?$CF02d?1?$CFd?5?$CF02d?3?$CF02d?3?$CF02d?0?5?$CFd?0@ 0044d934     tracking.obj
 0003:00000960       ??_C@_0DN@IMDH@CxImage?3?3Create?5?3?5width?5and?5heig@ 0044d960     cximage:xImage.obj
 0003:000009a0       ??_C@_0CG@PLLL@CxImage?3?3Create?5can?8t?5allocate?5m@ 0044d9a0     cximage:xImage.obj
 0003:000009c8       ??_C@_0BM@LIDL@CXIMAGE_MAX_MEMORY?5exceeded?$AA@ 0044d9c8     cximage:xImage.obj
 0003:000009e8       ??_R0PAX@8                 0044d9e8     cximage:ximawnd.obj
 0003:000009f8       ??_R0PAD@8                 0044d9f8     cximage:ximawnd.obj
 0003:00000a08       ??_C@_0BP@GHHI@compression?5type?5not?5supported?$AA@ 0044da08     cximage:ximawnd.obj
 0003:00000a28       ??_C@_0BE@OFIE@unknown?5compression?$AA@ 0044da28     cximage:ximawnd.obj
 0003:00000a3c       ??_C@_0BB@CODG@GetDIBits?5failed?$AA@ 0044da3c     cximage:ximawnd.obj
 0003:00000a50       ??_C@_0BE@MLND@Sample?5Text?501234?u?$PL?$AA@ 0044da50     cximage:ximawnd.obj
 0003:00000a64       ??_C@_05CNHG@Arial?$AA@    0044da64     cximage:ximawnd.obj
 0003:00000a6c       ??_C@_0O@EPF@null?5image?$CB?$CB?$CB?$AA@ 0044da6c     cximage:ximaenc.obj
 0003:00000a7c       ??_C@_0BC@MFEF@null?5file?5handler?$AA@ 0044da7c     cximage:ximaenc.obj
 0003:00000a90       ??_C@_02NGAF@wb?$AA@       0044da90     cximage:ximaenc.obj
 0003:00000a94       ??_C@_0BJ@DOH@the?5buffer?5must?5be?5empty?$AA@ 0044da94     cximage:ximaenc.obj
 0003:00000ab0       ??_C@_0BH@LCEG@Encode?3?5Unknown?5format?$AA@ 0044dab0     cximage:ximaenc.obj
 0003:00000ac8       ??_C@_0DI@CE@Multipage?5Encode?0?5Unsupported?5op@ 0044dac8     cximage:ximaenc.obj
 0003:00000b00       ??_C@_02JKAF@rb?$AA@       0044db00     cximage:ximaenc.obj
 0003:00000b04       ??_C@_0BJ@IHKD@Unable?5to?5load?5resource?$CB?$AA@ 0044db04     cximage:ximaenc.obj
 0003:00000b20       ??_C@_0CA@EOLN@Decode?3?5Unknown?5or?5wrong?5format?$AA@ 0044db20     cximage:ximaenc.obj
 0003:00000b40       ??_C@_0BN@DCKO@QIShrink?5can?8t?5enlarge?5image?$AA@ 0044db40     cximage:ximatran.obj
 0003:00000b60       ??_C@_0CL@GNDJ@JPEG?5can?5save?5only?5RGB?5or?5GreySc@ 0044db60     cximage:ximajpg.obj
 0003:00000ba0       ??_C@_0BD@EMBC@No?5image?5in?5jpeg?$CB?6?$AA@ 0044dba0     cximage:ximaexif.obj
 0003:00000bb4       ??_C@_0CF@IDKA@could?5not?5read?5the?5rest?5of?5the?5i@ 0044dbb4     cximage:ximaexif.obj
 0003:00000bdc       ??_C@_0CJ@MONH@could?5not?5allocate?5data?5for?5enti@ 0044dbdc     cximage:ximaexif.obj
 0003:00000c08       ??_C@_0BH@PEKA@Premature?5end?5of?5file?$DP?$AA@ 0044dc08     cximage:ximaexif.obj
 0003:00000c20       ??_C@_0BK@NKJI@Could?5not?5allocate?5memory?$AA@ 0044dc20     cximage:ximaexif.obj
 0003:00000c3c       ??_C@_0P@BCLJ@invalid?5marker?$AA@ 0044dc3c     cximage:ximaexif.obj
 0003:00000c4c       ??_C@_0BI@LAOO@too?5many?5padding?5bytes?$CB?$AA@ 0044dc4c     cximage:ximaexif.obj
 0003:00000c64       ??_C@_0BI@EJAP@too?5many?5padding?5bytes?6?$AA@ 0044dc64     cximage:ximaexif.obj
 0003:00000c7c       ??_C@_0BO@CAKI@Too?5many?5sections?5in?5jpg?5file?$AA@ 0044dc7c     cximage:ximaexif.obj
 0003:00000c9c       ??_C@_04EGGE@Exif?$AA@     0044dc9c     cximage:ximaexif.obj
 0003:00000ca4       ??_C@_0BP@PKHB@Invalid?5Exif?5alignment?5marker?4?$AA@ 0044dca4     cximage:ximaexif.obj
 0003:00000cc4       ??_C@_0BH@NLOH@Invalid?5Exif?5start?5?$CI1?$CJ?$AA@ 0044dcc4     cximage:ximaexif.obj
 0003:00000cdc       ??_C@_02KCEC@MM?$AA@       0044dcdc     cximage:ximaexif.obj
 0003:00000ce0       ??_C@_02FCLE@II?$AA@       0044dce0     cximage:ximaexif.obj
 0003:00000ce4       ??_C@_0BG@IPI@Incorrect?5Exif?5header?$AA@ 0044dce4     cximage:ximaexif.obj
 0003:00000cfc       ??_C@_0BK@KIDG@Illegal?5subdirectory?5link?$AA@ 0044dcfc     cximage:ximaexif.obj
 0003:00000d18       ??_C@_0CG@LNEJ@Illegal?5pointer?5offset?5value?5in?5@ 0044dd18     cximage:ximaexif.obj
 0003:00000d40       ??_C@_0CA@HEPB@Illegal?5format?5code?5in?5EXIF?5dir?$AA@ 0044dd40     cximage:ximaexif.obj
 0003:00000d60       ??_C@_05OGAG@ASCII?$AA@    0044dd60     cximage:ximaexif.obj
 0003:00000d68       ??_C@_0BJ@IHBJ@Undefined?5rotation?5value?$AA@ 0044dd68     cximage:ximaexif.obj
 0003:00000d84       ??_C@_0BK@ODGO@Illegally?5sized?5directory?$AA@ 0044dd84     cximage:ximaexif.obj
 0003:00000da0       ??_C@_0CD@OPHN@Can?8t?5write?5exif?5?3?5didn?8t?5read?5a@ 0044dda0     cximage:ximaexif.obj
 0003:00000dc4       ??_C@_04JLEA@GIF8?$AA@     0044ddc4     cximage:ximagif.obj
 0003:00000dcc       ??_C@_0BK@JJCO@multipage?5GIF?0?5no?5images?$CB?$AA@ 0044ddcc     cximage:ximagif.obj
 0003:00000de8       ??_C@_0BC@DHFN@Bad?5image?5pointer?$AA@ 0044dde8     cximage:ximagif.obj
 0003:00000dfc       ??_C@_0BF@CCHB@invalid?5file?5pointer?$AA@ 0044ddfc     cximage:ximagif.obj
 0003:00000e14       ??_C@_06BBOD@GIF89a?$AA@   0044de14     cximage:ximagif.obj
 0003:00000e1c       ??_C@_0M@MJHL@NETSCAPE2?40?$AA@ 0044de1c     cximage:ximagif.obj
 0003:00000e28       ??_C@_0BI@KIEH@Write?5Error?5in?5GIF?5file?$AA@ 0044de28     cximage:ximagif.obj
 0003:00000e40       ??_C@_0BG@BJIC@can?8t?5allocate?5memory?$AA@ 0044de40     cximage:ximabmp.obj
 0003:00000e58       ??_C@_09JCB@Cancelled?$AA@ 0044de58     cximage:ximabmp.obj
 0003:00000e64       ??_C@_0BG@BBPN@Can?8t?5allocate?5memory?$AA@ 0044de64     cximage:ximabmp.obj
 0003:00000e7c       ??_C@_0BL@BKCA@output?5dimensions?5returned?$AA@ 0044de7c     cximage:ximabmp.obj
 0003:00000e98       ??_C@_0BH@GOJK@Error?5reading?5BMP?5info?$AA@ 0044de98     cximage:ximabmp.obj
 0003:00000eb0       ??_C@_09FDLL@Not?5a?5BMP?$AA@ 0044deb0     cximage:ximabmp.obj
 0003:00000ebc       ??_C@_0CL@KPEE@Application?5transferred?5too?5many@ 0044debc     Jpeg:Jerror.obj
 0003:00000ee8       ??_C@_0CL@DGCP@Invalid?5SOS?5parameters?5for?5seque@ 0044dee8     Jpeg:Jerror.obj
 0003:00000f14       ??_C@_0DI@KKMD@Corrupt?5JPEG?5data?3?5found?5marker?5@ 0044df14     Jpeg:Jerror.obj
 0003:00000f4c       ??_C@_0BL@CCLA@Premature?5end?5of?5JPEG?5file?$AA@ 0044df4c     Jpeg:Jerror.obj
 0003:00000f68       ??_C@_0CO@KOEI@Warning?3?5unknown?5JFIF?5revision?5n@ 0044df68     Jpeg:Jerror.obj
 0003:00000f98       ??_C@_0CE@LJLO@Corrupt?5JPEG?5data?3?5bad?5Huffman?5c@ 0044df98     Jpeg:Jerror.obj
 0003:00000fbc       ??_C@_0DB@NJCK@Corrupt?5JPEG?5data?3?5premature?5end@ 0044dfbc     Jpeg:Jerror.obj
 0003:00000ff0       ??_C@_0DM@LCPP@Corrupt?5JPEG?5data?3?5?$CFu?5extraneous@ 0044dff0     Jpeg:Jerror.obj
 0003:0000102c       ??_C@_0EC@HHMG@Inconsistent?5progression?5sequenc@ 0044e02c     Jpeg:Jerror.obj
 0003:00001070       ??_C@_0CG@NMIJ@Unknown?5Adobe?5color?5transform?5co@ 0044e070     Jpeg:Jerror.obj
 0003:00001098       ??_C@_0BH@FJIP@Obtained?5XMS?5handle?5?$CFu?$AA@ 0044e098     Jpeg:Jerror.obj
 0003:000010b0       ??_C@_0BE@OPPB@Freed?5XMS?5handle?5?$CFu?$AA@ 0044e0b0     Jpeg:Jerror.obj
 0003:000010c4       ??_C@_0DE@HBF@Unrecognized?5component?5IDs?5?$CFd?5?$CFd@ 0044e0c4     Jpeg:Jerror.obj
 0003:000010f8       ??_C@_0DG@OMEL@JFIF?5extension?5marker?3?5RGB?5thumb@ 0044e0f8     Jpeg:Jerror.obj
 0003:00001130       ??_C@_0DK@DDOL@JFIF?5extension?5marker?3?5palette?5t@ 0044e130     Jpeg:Jerror.obj
 0003:0000116c       ??_C@_0EC@OLOP@JFIF?5extension?5marker?3?5JPEG?9comp@ 0044e16c     Jpeg:Jerror.obj
 0003:000011b0       ??_C@_0BJ@EFFL@Opened?5temporary?5file?5?$CFs?$AA@ 0044e1b0     Jpeg:Jerror.obj
 0003:000011cc       ??_C@_0BJ@DBD@Closed?5temporary?5file?5?$CFs?$AA@ 0044e1cc     Jpeg:Jerror.obj
 0003:000011e8       ??_C@_0BN@DPAO@?5?5Ss?$DN?$CFd?0?5Se?$DN?$CFd?0?5Ah?$DN?$CFd?0?5Al?$DN?$CFd?$AA@ 0044e1e8     Jpeg:Jerror.obj
 0003:00001208       ??_C@_0BO@DMDD@?5?5?5?5Component?5?$CFd?3?5dc?$DN?$CFd?5ac?$DN?$CFd?$AA@ 0044e208     Jpeg:Jerror.obj
 0003:00001228       ??_C@_0BN@BLFJ@Start?5Of?5Scan?3?5?$CFd?5components?$AA@ 0044e228     Jpeg:Jerror.obj
 0003:00001248       ??_C@_0P@FAEJ@Start?5of?5Image?$AA@ 0044e248     Jpeg:Jerror.obj
 0003:00001258       ??_C@_0BP@FKBK@?5?5?5?5Component?5?$CFd?3?5?$CFdhx?$CFdv?5q?$DN?$CFd?$AA@ 0044e258     Jpeg:Jerror.obj
 0003:00001278       ??_C@_0DK@IGCC@Start?5Of?5Frame?50x?$CF02x?3?5width?$DN?$CFu?0@ 0044e278     Jpeg:Jerror.obj
 0003:000012b4       ??_C@_0DJ@BEKA@Smoothing?5not?5supported?5with?5non@ 0044e2b4     Jpeg:Jerror.obj
 0003:000012f0       ??_C@_05NKN@RST?$CFd?$AA@  0044e2f0     Jpeg:Jerror.obj
 0003:000012f8       ??_C@_0CF@DIDH@At?5marker?50x?$CF02x?0?5recovery?5actio@ 0044e2f8     Jpeg:Jerror.obj
 0003:00001320       ??_C@_0CE@OOJH@Selected?5?$CFd?5colors?5for?5quantizat@ 0044e320     Jpeg:Jerror.obj
 0003:00001344       ??_C@_0BI@IPAL@Quantizing?5to?5?$CFd?5colors?$AA@ 0044e344     Jpeg:Jerror.obj
 0003:0000135c       ??_C@_0CD@IBAL@Quantizing?5to?5?$CFd?5?$DN?5?$CFd?$CK?$CFd?$CK?$CFd?5colo@ 0044e35c     Jpeg:Jerror.obj
 0003:00001380       ??_C@_0CI@JOIL@?5?5?5?5?5?5?5?5?$CF4u?5?$CF4u?5?$CF4u?5?$CF4u?5?$CF4u?5?$CF4u?5@ 0044e380     Jpeg:Jerror.obj
 0003:000013a8       ??_C@_0BJ@LGOI@Unexpected?5marker?50x?$CF02x?$AA@ 0044e3a8     Jpeg:Jerror.obj
 0003:000013c4       ??_C@_0CH@NFBM@Miscellaneous?5marker?50x?$CF02x?0?5len@ 0044e3c4     Jpeg:Jerror.obj
 0003:000013ec       ??_C@_0CB@KGBF@?5?5?5?5with?5?$CFd?5x?5?$CFd?5thumbnail?5image@ 0044e3ec     Jpeg:Jerror.obj
 0003:00001410       ??_C@_0CO@MHNF@JFIF?5extension?5marker?3?5type?50x?$CF0@ 0044e410     Jpeg:Jerror.obj
 0003:00001440       ??_C@_0DM@PAHO@Warning?3?5thumbnail?5image?5size?5do@ 0044e440     Jpeg:Jerror.obj
 0003:0000147c       ??_C@_0DF@PJO@JFIF?5APP0?5marker?3?5version?5?$CFd?4?$CF02@ 0044e47c     Jpeg:Jerror.obj
 0003:000014b4       ??_C@_0CI@HOID@?5?5?5?5?5?5?5?5?$CF3d?5?$CF3d?5?$CF3d?5?$CF3d?5?$CF3d?5?$CF3d?5@ 0044e4b4     Jpeg:Jerror.obj
 0003:000014dc       ??_C@_0N@CBOJ@End?5Of?5Image?$AA@ 0044e4dc     Jpeg:Jerror.obj
 0003:000014ec       ??_C@_0BH@NAOE@Obtained?5EMS?5handle?5?$CFu?$AA@ 0044e4ec     Jpeg:Jerror.obj
 0003:00001504       ??_C@_0BE@GGJK@Freed?5EMS?5handle?5?$CFu?$AA@ 0044e504     Jpeg:Jerror.obj
 0003:00001518       ??_C@_0BL@COFD@Define?5Restart?5Interval?5?$CFu?$AA@ 0044e518     Jpeg:Jerror.obj
 0003:00001534       ??_C@_0CL@OPD@Define?5Quantization?5Table?5?$CFd?5?5pr@ 0044e534     Jpeg:Jerror.obj
 0003:00001560       ??_C@_0BM@NIIN@Define?5Huffman?5Table?50x?$CF02x?$AA@ 0044e560     Jpeg:Jerror.obj
 0003:0000157c       ??_C@_0CH@CAM@Define?5Arithmetic?5Table?50x?$CF02x?3?5@ 0044e57c     Jpeg:Jerror.obj
 0003:000015a4       ??_C@_0CM@ONLH@Unknown?5APP14?5marker?5?$CInot?5Adobe?$CJ@ 0044e5a4     Jpeg:Jerror.obj
 0003:000015d0       ??_C@_0CK@CFHB@Unknown?5APP0?5marker?5?$CInot?5JFIF?$CJ?0?5@ 0044e5d0     Jpeg:Jerror.obj
 0003:000015fc       ??_C@_0EC@JKMJ@Adobe?5APP14?5marker?3?5version?5?$CFd?0?5@ 0044e5fc     Jpeg:Jerror.obj
 0003:00001640       ??_C@_0DO@IFPM@Caution?3?5quantization?5tables?5are@ 0044e640     Jpeg:Jerror.obj
 0003:00001680       ??_C@_0BA@BDJA@6b?5?527?9Mar?91998?$AA@ 0044e680     Jpeg:Jerror.obj
 0003:00001690       ??_C@_0CD@CFGJ@Copyright?5?$CIC?$CJ?51998?0?5Thomas?5G?4?5La@ 0044e690     Jpeg:Jerror.obj
 0003:000016b4       ??_C@_0BE@PGKE@Write?5to?5XMS?5failed?$AA@ 0044e6b4     Jpeg:Jerror.obj
 0003:000016c8       ??_C@_0BF@MCFF@Read?5from?5XMS?5failed?$AA@ 0044e6c8     Jpeg:Jerror.obj
 0003:000016e0       ??_C@_0CH@JLNP@Image?5too?5wide?5for?5this?5implemen@ 0044e6e0     Jpeg:Jerror.obj
 0003:00001708       ??_C@_0CD@CKND@Virtual?5array?5controller?5messed?5@ 0044e708     Jpeg:Jerror.obj
 0003:0000172c       ??_C@_0BP@GHDH@Unsupported?5marker?5type?50x?$CF02x?$AA@ 0044e72c     Jpeg:Jerror.obj
 0003:0000174c       ??_C@_0CK@HFBB@Application?5transferred?5too?5few?5@ 0044e74c     Jpeg:Jerror.obj
 0003:00001778       ??_C@_0DG@FGBC@Write?5failed?5on?5temporary?5file?5?9@ 0044e778     Jpeg:Jerror.obj
 0003:000017b0       ??_C@_0BO@POJN@Seek?5failed?5on?5temporary?5file?$AA@ 0044e7b0     Jpeg:Jerror.obj
 0003:000017d0       ??_C@_0BO@NLPB@Read?5failed?5on?5temporary?5file?$AA@ 0044e7d0     Jpeg:Jerror.obj
 0003:000017f0       ??_C@_0CD@OPHA@Failed?5to?5create?5temporary?5file?5@ 0044e7f0     Jpeg:Jerror.obj
 0003:00001814       ??_C@_0CM@LEOA@Invalid?5JPEG?5file?5structure?3?5SOS@ 0044e814     Jpeg:Jerror.obj
 0003:00001840       ??_C@_0CN@BOPG@Invalid?5JPEG?5file?5structure?3?5two@ 0044e840     Jpeg:Jerror.obj
 0003:00001870       ??_C@_0CK@JIMH@Unsupported?5JPEG?5process?3?5SOF?5ty@ 0044e870     Jpeg:Jerror.obj
 0003:0000189c       ??_C@_0DA@EFHH@Invalid?5JPEG?5file?5structure?3?5mis@ 0044e89c     Jpeg:Jerror.obj
 0003:000018cc       ??_C@_0CN@EDEP@Invalid?5JPEG?5file?5structure?3?5two@ 0044e8cc     Jpeg:Jerror.obj
 0003:000018fc       ??_C@_0CH@GIKM@Cannot?5quantize?5to?5more?5than?5?$CFd?5@ 0044e8fc     Jpeg:Jerror.obj
 0003:00001924       ??_C@_0CI@GPJB@Cannot?5quantize?5to?5fewer?5than?5?$CFd@ 0044e924     Jpeg:Jerror.obj
 0003:0000194c       ??_C@_0CO@BMMA@Cannot?5quantize?5more?5than?5?$CFd?5col@ 0044e94c     Jpeg:Jerror.obj
 0003:0000197c       ??_C@_0BO@DGCL@Insufficient?5memory?5?$CIcase?5?$CFd?$CJ?$AA@ 0044e97c     Jpeg:Jerror.obj
 0003:0000199c       ??_C@_0CL@CCLH@Not?5a?5JPEG?5file?3?5starts?5with?50x?$CF@ 0044e99c     Jpeg:Jerror.obj
 0003:000019c8       ??_C@_0CK@MKLH@Quantization?5table?50x?$CF02x?5was?5no@ 0044e9c8     Jpeg:Jerror.obj
 0003:000019f4       ??_C@_0CC@FLIL@JPEG?5datastream?5contains?5no?5imag@ 0044e9f4     Jpeg:Jerror.obj
 0003:00001a18       ??_C@_0CF@IGEA@Huffman?5table?50x?$CF02x?5was?5not?5def@ 0044ea18     Jpeg:Jerror.obj
 0003:00001a40       ??_C@_0BM@LFDP@Backing?5store?5not?5supported?$AA@ 0044ea40     Jpeg:Jerror.obj
 0003:00001a5c       ??_C@_0CO@LEJG@Requested?5feature?5was?5omitted?5at@ 0044ea5c     Jpeg:Jerror.obj
 0003:00001a8c       ??_C@_0BE@FPCJ@Not?5implemented?5yet?$AA@ 0044ea8c     Jpeg:Jerror.obj
 0003:00001aa0       ??_C@_0CH@JKLM@Invalid?5color?5quantization?5mode?5@ 0044eaa0     Jpeg:Jerror.obj
 0003:00001ac8       ??_C@_0CH@IKIP@Scan?5script?5does?5not?5transmit?5al@ 0044eac8     Jpeg:Jerror.obj
 0003:00001af0       ??_C@_0DO@CPDA@Cannot?5transcode?5due?5to?5multiple@ 0044eaf0     Jpeg:Jerror.obj
 0003:00001b30       ??_C@_0BM@LFEG@Premature?5end?5of?5input?5file?$AA@ 0044eb30     Jpeg:Jerror.obj
 0003:00001b4c       ??_C@_0BB@CPJA@Empty?5input?5file?$AA@ 0044eb4c     Jpeg:Jerror.obj
 0003:00001b60       ??_C@_0CP@OHKB@Maximum?5supported?5image?5dimensio@ 0044eb60     Jpeg:Jerror.obj
 0003:00001b90       ??_C@_0CB@LEBD@Missing?5Huffman?5code?5table?5entry@ 0044eb90     Jpeg:Jerror.obj
 0003:00001bb4       ??_C@_0CB@CLO@Huffman?5code?5size?5table?5overflow@ 0044ebb4     Jpeg:Jerror.obj
 0003:00001bd8       ??_C@_0CI@GGDO@Fractional?5sampling?5not?5implemen@ 0044ebd8     Jpeg:Jerror.obj
 0003:00001c00       ??_C@_0CP@LPEK@Output?5file?5write?5error?5?9?9?9?5out?5@ 0044ec00     Jpeg:Jerror.obj
 0003:00001c30       ??_C@_0BG@JKLB@Input?5file?5read?5error?$AA@ 0044ec30     Jpeg:Jerror.obj
 0003:00001c48       ??_C@_0CB@LEKJ@Didn?8t?5expect?5more?5than?5one?5scan@ 0044ec48     Jpeg:Jerror.obj
 0003:00001c6c       ??_C@_0BE@MEFJ@Write?5to?5EMS?5failed?$AA@ 0044ec6c     Jpeg:Jerror.obj
 0003:00001c80       ??_C@_0BF@PAKI@Read?5from?5EMS?5failed?$AA@ 0044ec80     Jpeg:Jerror.obj
 0003:00001c98       ??_C@_0CF@NBMO@Empty?5JPEG?5image?5?$CIDNL?5not?5suppor@ 0044ec98     Jpeg:Jerror.obj
 0003:00001cc0       ??_C@_0BD@MHLJ@Bogus?5DQT?5index?5?$CFd?$AA@ 0044ecc0     Jpeg:Jerror.obj
 0003:00001cd4       ??_C@_0BD@NBLE@Bogus?5DHT?5index?5?$CFd?$AA@ 0044ecd4     Jpeg:Jerror.obj
 0003:00001ce8       ??_C@_0BF@LMAO@Bogus?5DAC?5value?50x?$CFx?$AA@ 0044ece8     Jpeg:Jerror.obj
 0003:00001d00       ??_C@_0BD@DMCO@Bogus?5DAC?5index?5?$CFd?$AA@ 0044ed00     Jpeg:Jerror.obj
 0003:00001d14       ??_C@_0CF@POAA@Unsupported?5color?5conversion?5req@ 0044ed14     Jpeg:Jerror.obj
 0003:00001d3c       ??_C@_0CG@GHCD@Too?5many?5color?5components?3?5?$CFd?0?5m@ 0044ed3c     Jpeg:Jerror.obj
 0003:00001d64       ??_C@_0CF@MONF@CCIR601?5sampling?5not?5implemented@ 0044ed64     Jpeg:Jerror.obj
 0003:00001d8c       ??_C@_0BM@MGNK@Suspension?5not?5allowed?5here?$AA@ 0044ed8c     Jpeg:Jerror.obj
 0003:00001da8       ??_C@_0CL@EPCK@Buffer?5passed?5to?5JPEG?5library?5is@ 0044eda8     Jpeg:Jerror.obj
 0003:00001dd4       ??_C@_0BL@IGMP@Bogus?5virtual?5array?5access?$AA@ 0044edd4     Jpeg:Jerror.obj
 0003:00001df0       ??_C@_0EN@HMFC@JPEG?5parameter?5struct?5mismatch?3?5@ 0044edf0     Jpeg:Jerror.obj
 0003:00001e40       ??_C@_0CK@CEON@Improper?5call?5to?5JPEG?5library?5in@ 0044ee40     Jpeg:Jerror.obj
 0003:00001e6c       ??_C@_0CA@FMAB@Invalid?5scan?5script?5at?5entry?5?$CFd?$AA@ 0044ee6c     Jpeg:Jerror.obj
 0003:00001e8c       ??_C@_0BH@MNN@Bogus?5sampling?5factors?$AA@ 0044ee8c     Jpeg:Jerror.obj
 0003:00001ea4       ??_C@_0DH@DIJK@Invalid?5progressive?5parameters?5a@ 0044eea4     Jpeg:Jerror.obj
 0003:00001edc       ??_C@_0DH@HHBL@Invalid?5progressive?5parameters?5S@ 0044eedc     Jpeg:Jerror.obj
 0003:00001f14       ??_C@_0CD@BPNC@Unsupported?5JPEG?5data?5precision?5@ 0044ef14     Jpeg:Jerror.obj
 0003:00001f38       ??_C@_0BM@HOOF@Invalid?5memory?5pool?5code?5?$CFd?$AA@ 0044ef38     Jpeg:Jerror.obj
 0003:00001f54       ??_C@_0DA@FGHF@Sampling?5factors?5too?5large?5for?5i@ 0044ef54     Jpeg:Jerror.obj
 0003:00001f84       ??_C@_0DN@IBDJ@Wrong?5JPEG?5library?5version?3?5libr@ 0044ef84     Jpeg:Jerror.obj
 0003:00001fc4       ??_C@_0BE@DFMG@Bogus?5marker?5length?$AA@ 0044efc4     Jpeg:Jerror.obj
 0003:00001fd8       ??_C@_0BG@NFIP@Bogus?5JPEG?5colorspace?$AA@ 0044efd8     Jpeg:Jerror.obj
 0003:00001ff0       ??_C@_0BH@FCFN@Bogus?5input?5colorspace?$AA@ 0044eff0     Jpeg:Jerror.obj
 0003:00002008       ??_C@_0BP@FKAG@Bogus?5Huffman?5table?5definition?$AA@ 0044f008     Jpeg:Jerror.obj
 0003:00002028       ??_C@_0CI@PMIN@IDCT?5output?5block?5size?5?$CFd?5not?5su@ 0044f028     Jpeg:Jerror.obj
 0003:00002050       ??_C@_0BN@LHMG@DCT?5coefficient?5out?5of?5range?$AA@ 0044f050     Jpeg:Jerror.obj
 0003:00002070       ??_C@_0BP@PHIG@Invalid?5component?5ID?5?$CFd?5in?5SOS?$AA@ 0044f070     Jpeg:Jerror.obj
 0003:00002090       ??_C@_0BK@NLEP@Bogus?5buffer?5control?5mode?$AA@ 0044f090     Jpeg:Jerror.obj
 0003:000020ac       ??_C@_0CF@JENB@MAX_ALLOC_CHUNK?5is?5wrong?0?5please@ 0044f0ac     Jpeg:Jerror.obj
 0003:000020d4       ??_C@_0CA@GCN@ALIGN_TYPE?5is?5wrong?0?5please?5fix?$AA@ 0044f0d4     Jpeg:Jerror.obj
 0003:000020f4       ??_C@_0DJ@LIJI@Sorry?0?5there?5are?5legal?5restricti@ 0044f0f4     Jpeg:Jerror.obj
 0003:00002130       ??_C@_0BG@LNGG@Bogus?5message?5code?5?$CFd?$AA@ 0044f130     Jpeg:Jerror.obj
 0003:00002148       ??_C@_03HHKO@?$CFs?6?$AA@  0044f148     Jpeg:Jerror.obj
 0003:0000214c       ??_C@_05HLOL@?$CFld?$CFc?$AA@ 0044f14c     Jpeg:Jmemmgr.obj
 0003:00002154       ??_C@_07CBHP@JPEGMEM?$AA@  0044f154     Jpeg:Jmemmgr.obj
 0003:0000215c       ??_C@_0BG@JIPO@CBlobGetHullPerimeter?$AA@ 0044f15c     cvblobslib:blob.obj
 0003:00002174       ??_C@_0BA@DAOM@CBlobGetXCenter?$AA@ 0044f174     cvblobslib:blob.obj
 0003:00002184       ??_C@_0BA@BOHJ@CBlobGetYCenter?$AA@ 0044f184     cvblobslib:blob.obj
 0003:00002198       ??_R0H@8                   0044f198     cvblobslib:BlobResult.obj
 0003:0000220c       ??_C@_0BC@GMJJ@CBlobGetPerimeter?$AA@ 0044f20c     cvblobslib:BlobResult.obj
 0003:00002220       ??_C@_0BB@LNKD@CBlobGetExterior?$AA@ 0044f220     cvblobslib:BlobResult.obj
 0003:00002234       ??_C@_0BE@GJJN@CBlobGetCompactness?$AA@ 0044f234     cvblobslib:BlobResult.obj
 0003:00002248       ??_C@_0P@IJEM@CBlobGetLength?$AA@ 0044f248     cvblobslib:BlobResult.obj
 0003:00002258       ??_C@_0BI@DEB@CBlobGetExternPerimeter?$AA@ 0044f258     cvblobslib:BlobResult.obj
 0003:00002270       ?GUID_ATLVer30@ATL@@3U_GUID@@A 0044f270     mfcs42:stdafx.obj
 0003:00002280       ??_R0?AVtype_info@@@8      0044f280     msvcrt:ti_inst.obj
 0003:00002298       ___defaultmatherr          0044f298     msvcrt:merr.obj
 0003:000022a0       ?theApp@@3VCCnt_trafficApp@@A 0044f2a0     cnt_traffic.obj
 0003:0000236c       ??_C@_00A@?$AA@            0044f36c     cnt_trafficDlg.obj
 0003:00002370       __afxForceEXCLUDE          0044f370     mfcs42:nolib.obj
 0003:00002374       ?ATL_CREATE_OBJECT@CComApartment@ATL@@2IA 0044f374     mfcs42:stdafx.obj
 0003:00002378       ?m_libid@CComModule@ATL@@2U_GUID@@A 0044f378     mfcs42:stdafx.obj
 0003:00002388       ?_pModule@ATL@@3PAVCComModule@1@A 0044f388     mfcs42:stdafx.obj
 0003:0000238c       __afxForceSTDAFX           0044f38c     mfcs42:stdafx.obj
 0003:00002390       __dowildcard               0044f390     msvcrt:wildcard.obj
 0003:00002394       __newmode                  0044f394     msvcrt:_newmode.obj
 0003:00002398       __commode                  0044f398     msvcrt:xncommod.obj
 0003:0000239c       __fmode                    0044f39c     msvcrt:xtxtmode.obj
 0003:000023a0       ?_afxInitAppState@@3DA     0044f3a0     mfcs42:appmodul.obj
 0003:000023a4       __adjust_fdiv              0044f3a4     <common>
 0003:000023a8       ___onexitend               0044f3a8     <common>
 0003:000023ac       ___onexitbegin             0044f3ac     <common>
 0004:00000000       __IMPORT_DESCRIPTOR_highgui100 00450000     highgui:highgui100.dll
 0004:00000014       __IMPORT_DESCRIPTOR_cv100  00450014     cv:cv100.dll
 0004:00000028       __IMPORT_DESCRIPTOR_cxcore100 00450028     cxcore:cxcore100.dll
 0004:0000003c       __IMPORT_DESCRIPTOR_MFC42  0045003c     mfc42:MFC42.DLL
 0004:00000050       __IMPORT_DESCRIPTOR_MSVCRT 00450050     msvcrt:MSVCRT.dll
 0004:00000064       __IMPORT_DESCRIPTOR_KERNEL32 00450064     kernel32:KERNEL32.dll
 0004:00000078       __IMPORT_DESCRIPTOR_USER32 00450078     user32:USER32.dll
 0004:0000008c       __IMPORT_DESCRIPTOR_GDI32  0045008c     gdi32:GDI32.dll
 0004:000000a0       __IMPORT_DESCRIPTOR_SHELL32 004500a0     shell32:SHELL32.dll
 0004:000000b4       __IMPORT_DESCRIPTOR_OLEAUT32 004500b4     oleaut32:OLEAUT32.dll
 0004:000000c8       __IMPORT_DESCRIPTOR_MSVCP60 004500c8     msvcprt:MSVCP60.dll
 0004:000000dc       __NULL_IMPORT_DESCRIPTOR   004500dc     highgui:highgui100.dll
 0004:000005c0       __imp__BitBlt@36           004505c0     gdi32:GDI32.dll
 0004:000005c4       __imp__DeleteDC@4          004505c4     gdi32:GDI32.dll
 0004:000005c8       __imp__CreateRectRgn@16    004505c8     gdi32:GDI32.dll
 0004:000005cc       __imp__CombineRgn@16       004505cc     gdi32:GDI32.dll
 0004:000005d0       __imp__CreateFontIndirectA@4 004505d0     gdi32:GDI32.dll
 0004:000005d4       __imp__GetStockObject@4    004505d4     gdi32:GDI32.dll
 0004:000005d8       __imp__SetTextColor@8      004505d8     gdi32:GDI32.dll
 0004:000005dc       __imp__SetBkMode@8         004505dc     gdi32:GDI32.dll
 0004:000005e0       __imp__StretchDIBits@52    004505e0     gdi32:GDI32.dll
 0004:000005e4       __imp__RectVisible@8       004505e4     gdi32:GDI32.dll
 0004:000005e8       __imp__CreateCompatibleBitmap@12 004505e8     gdi32:GDI32.dll
 0004:000005ec       __imp__CreateBitmap@20     004505ec     gdi32:GDI32.dll
 0004:000005f0       __imp__SetBkColor@8        004505f0     gdi32:GDI32.dll
 0004:000005f4       __imp__StretchBlt@44       004505f4     gdi32:GDI32.dll
 0004:000005f8       __imp__GetClipBox@8        004505f8     gdi32:GDI32.dll
 0004:000005fc       __imp__CreateRectRgnIndirect@4 004505fc     gdi32:GDI32.dll
 0004:00000600       __imp__ExtSelectClipRgn@12 00450600     gdi32:GDI32.dll
 0004:00000604       __imp__SetStretchBltMode@8 00450604     gdi32:GDI32.dll
 0004:00000608       __imp__SetDIBitsToDevice@48 00450608     gdi32:GDI32.dll
 0004:0000060c       __imp__CreateDIBSection@24 0045060c     gdi32:GDI32.dll
 0004:00000610       __imp__DeleteObject@4      00450610     gdi32:GDI32.dll
 0004:00000614       __imp__GetObjectA@12       00450614     gdi32:GDI32.dll
 0004:00000618       __imp__SelectObject@8      00450618     gdi32:GDI32.dll
 0004:0000061c       __imp__RealizePalette@4    0045061c     gdi32:GDI32.dll
 0004:00000620       __imp__GetDIBits@28        00450620     gdi32:GDI32.dll
 0004:00000624       __imp__CreateCompatibleDC@4 00450624     gdi32:GDI32.dll
 0004:00000628       __imp__CreateDIBitmap@24   00450628     gdi32:GDI32.dll
 0004:0000062c       \177GDI32_NULL_THUNK_DATA  0045062c     gdi32:GDI32.dll
 0004:00000630       __imp__GlobalUnlock@4      00450630     kernel32:KERNEL32.dll
 0004:00000634       __imp__GlobalLock@4        00450634     kernel32:KERNEL32.dll
 0004:00000638       __imp__GlobalAlloc@8       00450638     kernel32:KERNEL32.dll
 0004:0000063c       __imp__GlobalSize@4        0045063c     kernel32:KERNEL32.dll
 0004:00000640       __imp__LockResource@4      00450640     kernel32:KERNEL32.dll
 0004:00000644       __imp__LoadResource@8      00450644     kernel32:KERNEL32.dll
 0004:00000648       __imp__SizeofResource@8    00450648     kernel32:KERNEL32.dll
 0004:0000064c       __imp__GetStartupInfoA@4   0045064c     kernel32:KERNEL32.dll
 0004:00000650       __imp__GetModuleHandleA@4  00450650     kernel32:KERNEL32.dll
 0004:00000654       __imp__GetProcAddress@8    00450654     kernel32:KERNEL32.dll
 0004:00000658       __imp__Sleep@4             00450658     kernel32:KERNEL32.dll
 0004:0000065c       __imp__CopyFileA@12        0045065c     kernel32:KERNEL32.dll
 0004:00000660       \177KERNEL32_NULL_THUNK_DATA 00450660     kernel32:KERNEL32.dll
 0004:00000664       __imp_?ContinueModal@CWnd@@UAEHXZ 00450664     mfc42:MFC42.DLL
 0004:00000668       __imp_?WinHelpA@CWnd@@UAEXKI@Z 00450668     mfc42:MFC42.DLL
 0004:0000066c       __imp_?GetScrollBarCtrl@CWnd@@UBEPAVCScrollBar@@H@Z 0045066c     mfc42:MFC42.DLL
 0004:00000670       __imp_?OnToolHitTest@CWnd@@UBEHVCPoint@@PAUtagTOOLINFOA@@@Z 00450670     mfc42:MFC42.DLL
 0004:00000674       __imp_?CalcWindowRect@CWnd@@UAEXPAUtagRECT@@I@Z 00450674     mfc42:MFC42.DLL
 0004:00000678       __imp_?PreCreateWindow@CWnd@@UAEHAAUtagCREATESTRUCTA@@@Z 00450678     mfc42:MFC42.DLL
 0004:0000067c       __imp_?DestroyWindow@CWnd@@UAEHXZ 0045067c     mfc42:MFC42.DLL
 0004:00000680       __imp_?PreSubclassWindow@CWnd@@UAEXXZ 00450680     mfc42:MFC42.DLL
 0004:00000684       __imp_?GetConnectionHook@CCmdTarget@@MAEPAUIConnectionPoint@@ABU_GUID@@@Z 00450684     mfc42:MFC42.DLL
 0004:00000688       __imp_?GetExtraConnectionPoints@CCmdTarget@@MAEHPAVCPtrArray@@@Z 00450688     mfc42:MFC42.DLL
 0004:0000068c       __imp_?GetInterfaceHook@CCmdTarget@@UAEPAUIUnknown@@PBX@Z 0045068c     mfc42:MFC42.DLL
 0004:00000690       __imp_?OnCreateAggregates@CCmdTarget@@UAEHXZ 00450690     mfc42:MFC42.DLL
 0004:00000694       __imp_?GetEventSinkMap@CCmdTarget@@MBEPBUAFX_EVENTSINKMAP@@XZ 00450694     mfc42:MFC42.DLL
 0004:00000698       __imp_?GetInterfaceMap@CCmdTarget@@MBEPBUAFX_INTERFACEMAP@@XZ 00450698     mfc42:MFC42.DLL
 0004:0000069c       __imp_?GetConnectionMap@CCmdTarget@@MBEPBUAFX_CONNECTIONMAP@@XZ 0045069c     mfc42:MFC42.DLL
 0004:000006a0       __imp_?GetDispatchMap@CCmdTarget@@MBEPBUAFX_DISPMAP@@XZ 004506a0     mfc42:MFC42.DLL
 0004:000006a4       __imp_?GetCommandMap@CCmdTarget@@MBEPBUAFX_OLECMDMAP@@XZ 004506a4     mfc42:MFC42.DLL
 0004:000006a8       __imp_?GetMessageMap@CWnd@@MBEPBUAFX_MSGMAP@@XZ 004506a8     mfc42:MFC42.DLL
 0004:000006ac       __imp_?GetTypeLib@CCmdTarget@@UAEJKPAPAUITypeLib@@@Z 004506ac     mfc42:MFC42.DLL
 0004:000006b0       __imp_?GetTypeLibCache@CCmdTarget@@UAEPAVCTypeLibCache@@XZ 004506b0     mfc42:MFC42.DLL
 0004:000006b4       __imp_?GetTypeInfoCount@CCmdTarget@@UAEIXZ 004506b4     mfc42:MFC42.DLL
 0004:000006b8       __imp_?GetDispatchIID@CCmdTarget@@UAEHPAU_GUID@@@Z 004506b8     mfc42:MFC42.DLL
 0004:000006bc       __imp_?IsInvokeAllowed@CCmdTarget@@UAEHJ@Z 004506bc     mfc42:MFC42.DLL
 0004:000006c0       __imp_?OnFinalRelease@CWnd@@UAEXXZ 004506c0     mfc42:MFC42.DLL
 0004:000006c4       __imp_?OnCmdMsg@CCmdTarget@@UAEHIHPAXPAUAFX_CMDHANDLERINFO@@@Z 004506c4     mfc42:MFC42.DLL
 0004:000006c8       __imp_??0CWnd@@QAE@XZ      004506c8     mfc42:MFC42.DLL
 0004:000006cc       __imp_??2@YAPAXI@Z         004506cc     mfc42:MFC42.DLL
 0004:000006d0       __imp_??3@YAXPAX@Z         004506d0     mfc42:MFC42.DLL
 0004:000006d4       __imp_?CreateControl@CWnd@@QAEHABU_GUID@@PBDKABUtagRECT@@PAV1@IPAVCFile@@HPAG@Z 004506d4     mfc42:MFC42.DLL
 0004:000006d8       __imp_??1CWnd@@UAE@XZ      004506d8     mfc42:MFC42.DLL
 0004:000006dc       __imp_?classCWnd@CWnd@@2UCRuntimeClass@@B 004506dc     mfc42:MFC42.DLL
 0004:000006e0       __imp_?InvokeHelper@CWnd@@QAAXJGGPAXPBEZZ 004506e0     mfc42:MFC42.DLL
 0004:000006e4       __imp_??1CString@@QAE@XZ   004506e4     mfc42:MFC42.DLL
 0004:000006e8       __imp_??0CString@@QAE@ABV0@@Z 004506e8     mfc42:MFC42.DLL
 0004:000006ec       __imp_??0CString@@QAE@XZ   004506ec     mfc42:MFC42.DLL
 0004:000006f0       __imp_?DrawItem@CButton@@UAEXPAUtagDRAWITEMSTRUCT@@@Z 004506f0     mfc42:MFC42.DLL
 0004:000006f4       __imp_?OnChildNotify@CButton@@MAEHIIJPAJ@Z 004506f4     mfc42:MFC42.DLL
 0004:000006f8       __imp_?GetRuntimeClass@CButton@@UBEPAUCRuntimeClass@@XZ 004506f8     mfc42:MFC42.DLL
 0004:000006fc       __imp_?GetRuntimeClass@CStatic@@UBEPAUCRuntimeClass@@XZ 004506fc     mfc42:MFC42.DLL
 0004:00000700       __imp_?DrawItem@CListCtrl@@UAEXPAUtagDRAWITEMSTRUCT@@@Z 00450700     mfc42:MFC42.DLL
 0004:00000704       __imp_?OnChildNotify@CListCtrl@@MAEHIIJPAJ@Z 00450704     mfc42:MFC42.DLL
 0004:00000708       __imp_?GetMessageMap@CListCtrl@@MBEPBUAFX_MSGMAP@@XZ 00450708     mfc42:MFC42.DLL
 0004:0000070c       __imp_?GetRuntimeClass@CListCtrl@@UBEPAUCRuntimeClass@@XZ 0045070c     mfc42:MFC42.DLL
 0004:00000710       __imp_?PreInitDialog@CDialog@@MAEXXZ 00450710     mfc42:MFC42.DLL
 0004:00000714       __imp_?OnCancel@CDialog@@MAEXXZ 00450714     mfc42:MFC42.DLL
 0004:00000718       __imp_?OnOK@CDialog@@MAEXXZ 00450718     mfc42:MFC42.DLL
 0004:0000071c       __imp_?OnSetFont@CDialog@@UAEXPAVCFont@@@Z 0045071c     mfc42:MFC42.DLL
 0004:00000720       __imp_?DoModal@CDialog@@UAEHXZ 00450720     mfc42:MFC42.DLL
 0004:00000724       __imp_?SetOccDialogInfo@CDialog@@MAEHPAU_AFX_OCC_DIALOG_INFO@@@Z 00450724     mfc42:MFC42.DLL
 0004:00000728       __imp_?CheckAutoCenter@CDialog@@UAEHXZ 00450728     mfc42:MFC42.DLL
 0004:0000072c       __imp_?PreTranslateMessage@CDialog@@UAEHPAUtagMSG@@@Z 0045072c     mfc42:MFC42.DLL
 0004:00000730       __imp_?Create@CWnd@@UAEHPBD0KABUtagRECT@@PAV1@IPAUCCreateContext@@@Z 00450730     mfc42:MFC42.DLL
 0004:00000734       __imp_?OnCmdMsg@CDialog@@UAEHIHPAXPAUAFX_CMDHANDLERINFO@@@Z 00450734     mfc42:MFC42.DLL
 0004:00000738       __imp_?EndModalLoop@CWnd@@UAEXH@Z 00450738     mfc42:MFC42.DLL
 0004:0000073c       __imp_??1CStatic@@UAE@XZ   0045073c     mfc42:MFC42.DLL
 0004:00000740       __imp_??1CButton@@UAE@XZ   00450740     mfc42:MFC42.DLL
 0004:00000744       __imp_??1CListCtrl@@UAE@XZ 00450744     mfc42:MFC42.DLL
 0004:00000748       __imp_??1CDialog@@UAE@XZ   00450748     mfc42:MFC42.DLL
 0004:0000074c       __imp_??0CDialog@@QAE@IPAVCWnd@@@Z 0045074c     mfc42:MFC42.DLL
 0004:00000750       __imp_?DDX_Control@@YGXPAVCDataExchange@@HAAVCWnd@@@Z 00450750     mfc42:MFC42.DLL
 0004:00000754       __imp_?messageMap@CDialog@@1UAFX_MSGMAP@@B 00450754     mfc42:MFC42.DLL
 0004:00000758       __imp_?FromHandle@CDC@@SGPAV1@PAUHDC__@@@Z 00450758     mfc42:MFC42.DLL
 0004:0000075c       __imp_?InsertItem@CListCtrl@@QAEHIHPBDIIHJ@Z 0045075c     mfc42:MFC42.DLL
 0004:00000760       __imp_?InsertColumn@CListCtrl@@QAEHHPBDHHH@Z 00450760     mfc42:MFC42.DLL
 0004:00000764       __imp_?OnInitDialog@CDialog@@UAEHXZ 00450764     mfc42:MFC42.DLL
 0004:00000768       __imp_?MessageBoxA@CWnd@@QAEHPBD0I@Z 00450768     mfc42:MFC42.DLL
 0004:0000076c       __imp_?Default@CWnd@@IAEJXZ 0045076c     mfc42:MFC42.DLL
 0004:00000770       __imp_?SetItemText@CListCtrl@@QAEHHHPBD@Z 00450770     mfc42:MFC42.DLL
 0004:00000774       __imp_??1CPaintDC@@UAE@XZ  00450774     mfc42:MFC42.DLL
 0004:00000778       __imp_??0CPaintDC@@QAE@PAVCWnd@@@Z 00450778     mfc42:MFC42.DLL
 0004:0000077c       __imp_?OnHelp@CWinApp@@IAEXXZ 0045077c     mfc42:MFC42.DLL
 0004:00000780       __imp_?messageMap@CWinApp@@1UAFX_MSGMAP@@B 00450780     mfc42:MFC42.DLL
 0004:00000784       __imp_?WinHelpA@CWinApp@@UAEXKI@Z 00450784     mfc42:MFC42.DLL
 0004:00000788       __imp_?OnDDECommand@CWinApp@@UAEHPAD@Z 00450788     mfc42:MFC42.DLL
 0004:0000078c       __imp_?DoWaitCursor@CWinApp@@UAEXH@Z 0045078c     mfc42:MFC42.DLL
 0004:00000790       __imp_?DoMessageBox@CWinApp@@UAEHPBDII@Z 00450790     mfc42:MFC42.DLL
 0004:00000794       __imp_?SaveAllModified@CWinApp@@UAEHXZ 00450794     mfc42:MFC42.DLL
 0004:00000798       __imp_?InitApplication@CWinApp@@UAEHXZ 00450798     mfc42:MFC42.DLL
 0004:0000079c       __imp_?AddToRecentFileList@CWinApp@@UAEXPBD@Z 0045079c     mfc42:MFC42.DLL
 0004:000007a0       __imp_?OpenDocumentFile@CWinApp@@UAEPAVCDocument@@PBD@Z 004507a0     mfc42:MFC42.DLL
 0004:000007a4       __imp_?Delete@CWinThread@@UAEXXZ 004507a4     mfc42:MFC42.DLL
 0004:000007a8       __imp_?GetMainWnd@CWinThread@@UAEPAVCWnd@@XZ 004507a8     mfc42:MFC42.DLL
 0004:000007ac       __imp_?ProcessMessageFilter@CWinThread@@UAEHHPAUtagMSG@@@Z 004507ac     mfc42:MFC42.DLL
 0004:000007b0       __imp_?ProcessWndProcException@CWinApp@@UAEJPAVCException@@PBUtagMSG@@@Z 004507b0     mfc42:MFC42.DLL
 0004:000007b4       __imp_?ExitInstance@CWinApp@@UAEHXZ 004507b4     mfc42:MFC42.DLL
 0004:000007b8       __imp_?IsIdleMessage@CWinThread@@UAEHPAUtagMSG@@@Z 004507b8     mfc42:MFC42.DLL
 0004:000007bc       __imp_?OnIdle@CWinApp@@UAEHJ@Z 004507bc     mfc42:MFC42.DLL
 0004:000007c0       __imp_?PumpMessage@CWinThread@@UAEHXZ 004507c0     mfc42:MFC42.DLL
 0004:000007c4       __imp_?PreTranslateMessage@CWinThread@@UAEHPAUtagMSG@@@Z 004507c4     mfc42:MFC42.DLL
 0004:000007c8       __imp_?Run@CWinApp@@UAEHXZ 004507c8     mfc42:MFC42.DLL
 0004:000007cc       __imp_?OnFinalRelease@CCmdTarget@@UAEXXZ 004507cc     mfc42:MFC42.DLL
 0004:000007d0       __imp_?GetRuntimeClass@CWinApp@@UBEPAUCRuntimeClass@@XZ 004507d0     mfc42:MFC42.DLL
 0004:000007d4       __imp_??0CWinApp@@QAE@PBD@Z 004507d4     mfc42:MFC42.DLL
 0004:000007d8       __imp_??1CWinApp@@UAE@XZ   004507d8     mfc42:MFC42.DLL
 0004:000007dc       __imp_?AfxEnableControlContainer@@YAXPAVCOccManager@@@Z 004507dc     mfc42:MFC42.DLL
 0004:000007e0       __imp_?AfxEndThread@@YGXIH@Z 004507e0     mfc42:MFC42.DLL
 0004:000007e4       __imp_?EnableWindow@CWnd@@QAEHH@Z 004507e4     mfc42:MFC42.DLL
 0004:000007e8       __imp_?GetRuntimeClass@CEdit@@UBEPAUCRuntimeClass@@XZ 004507e8     mfc42:MFC42.DLL
 0004:000007ec       __imp_??1CFile@@UAE@XZ     004507ec     mfc42:MFC42.DLL
 0004:000007f0       __imp_??1CEdit@@UAE@XZ     004507f0     mfc42:MFC42.DLL
 0004:000007f4       __imp_??0CFile@@QAE@XZ     004507f4     mfc42:MFC42.DLL
 0004:000007f8       __imp_?SetWindowTextA@CWnd@@QAEXPBD@Z 004507f8     mfc42:MFC42.DLL
 0004:000007fc       __imp_?ReportError@CException@@UAEHII@Z 004507fc     mfc42:MFC42.DLL
 0004:00000800       __imp_?GetErrorMessage@CFileException@@UAEHPADIPAI@Z 00450800     mfc42:MFC42.DLL
 0004:00000804       __imp_?GetRuntimeClass@CFileException@@UBEPAUCRuntimeClass@@XZ 00450804     mfc42:MFC42.DLL
 0004:00000808       __imp_?GetLocalTm@CTime@@QBEPAUtm@@PAU2@@Z 00450808     mfc42:MFC42.DLL
 0004:0000080c       __imp_?GetTickCount@CTime@@SG?AV1@XZ 0045080c     mfc42:MFC42.DLL
 0004:00000810       __imp_??4CString@@QAEABV0@PBD@Z 00450810     mfc42:MFC42.DLL
 0004:00000814       __imp_??0CException@@QAE@XZ 00450814     mfc42:MFC42.DLL
 0004:00000818       __imp_?GetRuntimeClass@CObject@@UBEPAUCRuntimeClass@@XZ 00450818     mfc42:MFC42.DLL
 0004:0000081c       __imp_?AfxBeginThread@@YGPAVCWinThread@@P6AIPAX@Z0HIKPAU_SECURITY_ATTRIBUTES@@@Z 0045081c     mfc42:MFC42.DLL
 0004:00000820       __imp_?AfxMessageBox@@YGHPBDII@Z 00450820     mfc42:MFC42.DLL
 0004:00000824       __imp_?Find@CString@@QBEHD@Z 00450824     mfc42:MFC42.DLL
 0004:00000828       __imp_?AfxGetModuleState@@YGPAVAFX_MODULE_STATE@@XZ 00450828     mfc42:MFC42.DLL
 0004:0000082c       __imp_?Mid@CString@@QBE?AV1@HH@Z 0045082c     mfc42:MFC42.DLL
 0004:00000830       __imp_?Left@CString@@QBE?AV1@H@Z 00450830     mfc42:MFC42.DLL
 0004:00000834       __imp_?Find@CString@@QBEHPBD@Z 00450834     mfc42:MFC42.DLL
 0004:00000838       __imp_??0CString@@QAE@PBD@Z 00450838     mfc42:MFC42.DLL
 0004:0000083c       __imp_?UpdateData@CWnd@@QAEHH@Z 0045083c     mfc42:MFC42.DLL
 0004:00000840       __imp_?Delete@CException@@QAEXXZ 00450840     mfc42:MFC42.DLL
 0004:00000844       __imp_?Close@CFile@@UAEXXZ 00450844     mfc42:MFC42.DLL
 0004:00000848       __imp_?Write@CFile@@UAEXPBXI@Z 00450848     mfc42:MFC42.DLL
 0004:0000084c       __imp_?Open@CFile@@UAEHPBDIPAVCFileException@@@Z 0045084c     mfc42:MFC42.DLL
 0004:00000850       __imp_?Remove@CFile@@SGXPBD@Z 00450850     mfc42:MFC42.DLL
 0004:00000854       __imp_?ReleaseBuffer@CString@@QAEXH@Z 00450854     mfc42:MFC42.DLL
 0004:00000858       __imp_??1CFileFind@@UAE@XZ 00450858     mfc42:MFC42.DLL
 0004:0000085c       __imp_?GetBufferSetLength@CString@@QAEPADH@Z 0045085c     mfc42:MFC42.DLL
 0004:00000860       __imp_?GetFileName@CFileFind@@UBE?AVCString@@XZ 00450860     mfc42:MFC42.DLL
 0004:00000864       __imp_?FindNextFileA@CFileFind@@UAEHXZ 00450864     mfc42:MFC42.DLL
 0004:00000868       __imp_?FindFile@CFileFind@@UAEHPBDK@Z 00450868     mfc42:MFC42.DLL
 0004:0000086c       __imp_??0CFileFind@@QAE@XZ 0045086c     mfc42:MFC42.DLL
 0004:00000870       __imp_?GetWindowTextA@CWnd@@QBEXAAVCString@@@Z 00450870     mfc42:MFC42.DLL
 0004:00000874       __imp_?OnCommand@CWnd@@MAEHIJ@Z 00450874     mfc42:MFC42.DLL
 0004:00000878       __imp_?OnNotify@CWnd@@MAEHIJPAJ@Z 00450878     mfc42:MFC42.DLL
 0004:0000087c       __imp_?GetSuperWndProcAddr@CWnd@@MAEPAP6GJPAUHWND__@@IIJ@ZXZ 0045087c     mfc42:MFC42.DLL
 0004:00000880       __imp_?PreTranslateMessage@CWnd@@UAEHPAUtagMSG@@@Z 00450880     mfc42:MFC42.DLL
 0004:00000884       __imp_?OnAmbientProperty@CWnd@@UAEHPAVCOleControlSite@@JPAUtagVARIANT@@@Z 00450884     mfc42:MFC42.DLL
 0004:00000888       __imp_?WindowProc@CWnd@@MAEJIIJ@Z 00450888     mfc42:MFC42.DLL
 0004:0000088c       __imp_?OnWndMsg@CWnd@@MAEHIIJPAJ@Z 0045088c     mfc42:MFC42.DLL
 0004:00000890       __imp_?DefWindowProcA@CWnd@@MAEJIIJ@Z 00450890     mfc42:MFC42.DLL
 0004:00000894       __imp_?PostNcDestroy@CWnd@@MAEXXZ 00450894     mfc42:MFC42.DLL
 0004:00000898       __imp_?OnChildNotify@CWnd@@MAEHIIJPAJ@Z 00450898     mfc42:MFC42.DLL
 0004:0000089c       __imp_?CheckAutoCenter@CWnd@@UAEHXZ 0045089c     mfc42:MFC42.DLL
 0004:000008a0       __imp_?IsFrameWnd@CWnd@@UBEHXZ 004508a0     mfc42:MFC42.DLL
 0004:000008a4       __imp_?SetOccDialogInfo@CWnd@@MAEHPAU_AFX_OCC_DIALOG_INFO@@@Z 004508a4     mfc42:MFC42.DLL
 0004:000008a8       __imp_?AfxWinMain@@YGHPAUHINSTANCE__@@0PADH@Z 004508a8     mfc42:MFC42.DLL
 0004:000008ac       __imp_?GetRuntimeClass@CDialog@@UBEPAUCRuntimeClass@@XZ 004508ac     mfc42:MFC42.DLL
 0004:000008b0       __imp_??4CString@@QAEABV0@ABV0@@Z 004508b0     mfc42:MFC42.DLL
 0004:000008b4       \177MFC42_NULL_THUNK_DATA  004508b4     mfc42:MFC42.DLL
 0004:000008b8       __imp_??0Init@ios_base@std@@QAE@XZ 004508b8     msvcprt:MSVCP60.dll
 0004:000008bc       __imp_??0_Winit@std@@QAE@XZ 004508bc     msvcprt:MSVCP60.dll
 0004:000008c0       __imp_??1_Winit@std@@QAE@XZ 004508c0     msvcprt:MSVCP60.dll
 0004:000008c4       __imp_??1Init@ios_base@std@@QAE@XZ 004508c4     msvcprt:MSVCP60.dll
 0004:000008c8       \177MSVCP60_NULL_THUNK_DATA 004508c8     msvcprt:MSVCP60.dll
 0004:000008cc       __imp__strerror            004508cc     msvcrt:MSVCRT.dll
 0004:000008d0       __imp___errno              004508d0     msvcrt:MSVCRT.dll
 0004:000008d4       __imp___rmdir              004508d4     msvcrt:MSVCRT.dll
 0004:000008d8       __imp___mbscmp             004508d8     msvcrt:MSVCRT.dll
 0004:000008dc       __imp__clock               004508dc     msvcrt:MSVCRT.dll
 0004:000008e0       __imp__free                004508e0     msvcrt:MSVCRT.dll
 0004:000008e4       __imp__malloc              004508e4     msvcrt:MSVCRT.dll
 0004:000008e8       __imp__realloc             004508e8     msvcrt:MSVCRT.dll
 0004:000008ec       __imp__floor               004508ec     msvcrt:MSVCRT.dll
 0004:000008f0       __imp___CxxThrowException@8 004508f0     msvcrt:MSVCRT.dll
 0004:000008f4       __imp___mbsnbcpy           004508f4     msvcrt:MSVCRT.dll
 0004:000008f8       __imp__calloc              004508f8     msvcrt:MSVCRT.dll
 0004:000008fc       __imp___mbslen             004508fc     msvcrt:MSVCRT.dll
 0004:00000900       __imp___CIpow              00450900     msvcrt:MSVCRT.dll
 0004:00000904       __imp__div                 00450904     msvcrt:MSVCRT.dll
 0004:00000908       __imp___CIacos             00450908     msvcrt:MSVCRT.dll
 0004:0000090c       __imp___CIfmod             0045090c     msvcrt:MSVCRT.dll
 0004:00000910       __imp__longjmp             00450910     msvcrt:MSVCRT.dll
 0004:00000914       __imp___setjmp3            00450914     msvcrt:MSVCRT.dll
 0004:00000918       __imp____CxxLongjmpUnwind@4 00450918     msvcrt:MSVCRT.dll
 0004:0000091c       __imp__printf              0045091c     msvcrt:MSVCRT.dll
 0004:00000920       __imp__strncpy             00450920     msvcrt:MSVCRT.dll
 0004:00000924       __imp__isprint             00450924     msvcrt:MSVCRT.dll
 0004:00000928       __imp__strncmp             00450928     msvcrt:MSVCRT.dll
 0004:0000092c       __imp___iob                0045092c     msvcrt:MSVCRT.dll
 0004:00000930       __imp__sscanf              00450930     msvcrt:MSVCRT.dll
 0004:00000934       __imp__getenv              00450934     msvcrt:MSVCRT.dll
 0004:00000938       __imp__memcpy              00450938     msvcrt:MSVCRT.dll
 0004:0000093c       __imp__fabs                0045093c     msvcrt:MSVCRT.dll
 0004:00000940       __imp__sqrt                00450940     msvcrt:MSVCRT.dll
 0004:00000944       __imp__pow                 00450944     msvcrt:MSVCRT.dll
 0004:00000948       __imp___stricmp            00450948     msvcrt:MSVCRT.dll
 0004:0000094c       __imp___except_handler3    0045094c     msvcrt:MSVCRT.dll
 0004:00000950       __imp_?terminate@@YAXXZ    00450950     msvcrt:MSVCRT.dll
 0004:00000954       __imp____dllonexit         00450954     msvcrt:MSVCRT.dll
 0004:00000958       __imp___onexit             00450958     msvcrt:MSVCRT.dll
 0004:0000095c       __imp_??1type_info@@UAE@XZ 0045095c     msvcrt:MSVCRT.dll
 0004:00000960       __imp___exit               00450960     msvcrt:MSVCRT.dll
 0004:00000964       __imp___XcptFilter         00450964     msvcrt:MSVCRT.dll
 0004:00000968       __imp___acmdln             00450968     msvcrt:MSVCRT.dll
 0004:0000096c       __imp____getmainargs       0045096c     msvcrt:MSVCRT.dll
 0004:00000970       __imp___initterm           00450970     msvcrt:MSVCRT.dll
 0004:00000974       __imp____setusermatherr    00450974     msvcrt:MSVCRT.dll
 0004:00000978       __imp___adjust_fdiv        00450978     msvcrt:MSVCRT.dll
 0004:0000097c       __imp____p__commode        0045097c     msvcrt:MSVCRT.dll
 0004:00000980       __imp____p__fmode          00450980     msvcrt:MSVCRT.dll
 0004:00000984       __imp____set_app_type      00450984     msvcrt:MSVCRT.dll
 0004:00000988       __imp___controlfp          00450988     msvcrt:MSVCRT.dll
 0004:0000098c       __imp__fprintf             0045098c     msvcrt:MSVCRT.dll
 0004:00000990       __imp__exit                00450990     msvcrt:MSVCRT.dll
 0004:00000994       __imp___ftol               00450994     msvcrt:MSVCRT.dll
 0004:00000998       __imp__ceil                00450998     msvcrt:MSVCRT.dll
 0004:0000099c       __imp__sprintf             0045099c     msvcrt:MSVCRT.dll
 0004:000009a0       __imp__getc                004509a0     msvcrt:MSVCRT.dll
 0004:000009a4       __imp__fputc               004509a4     msvcrt:MSVCRT.dll
 0004:000009a8       __imp__fflush              004509a8     msvcrt:MSVCRT.dll
 0004:000009ac       __imp__ftell               004509ac     msvcrt:MSVCRT.dll
 0004:000009b0       __imp__fseek               004509b0     msvcrt:MSVCRT.dll
 0004:000009b4       __imp__fwrite              004509b4     msvcrt:MSVCRT.dll
 0004:000009b8       __imp__fread               004509b8     msvcrt:MSVCRT.dll
 0004:000009bc       __imp__fopen               004509bc     msvcrt:MSVCRT.dll
 0004:000009c0       __imp___setmbcp            004509c0     msvcrt:MSVCRT.dll
 0004:000009c4       __imp__fscanf              004509c4     msvcrt:MSVCRT.dll
 0004:000009c8       __imp__atof                004509c8     msvcrt:MSVCRT.dll
 0004:000009cc       __imp___mkdir              004509cc     msvcrt:MSVCRT.dll
 0004:000009d0       __imp__memset              004509d0     msvcrt:MSVCRT.dll
 0004:000009d4       __imp__atoi                004509d4     msvcrt:MSVCRT.dll
 0004:000009d8       __imp____CxxFrameHandler   004509d8     msvcrt:MSVCRT.dll
 0004:000009dc       __imp___purecall           004509dc     msvcrt:MSVCRT.dll
 0004:000009e0       __imp__fclose              004509e0     msvcrt:MSVCRT.dll
 0004:000009e4       \177MSVCRT_NULL_THUNK_DATA 004509e4     msvcrt:MSVCRT.dll
 0004:000009e8       __imp__SafeArrayAccessData@8 004509e8     oleaut32:OLEAUT32.dll
 0004:000009ec       __imp__SafeArrayUnaccessData@4 004509ec     oleaut32:OLEAUT32.dll
 0004:000009f0       \177OLEAUT32_NULL_THUNK_DATA 004509f0     oleaut32:OLEAUT32.dll
 0004:000009f4       __imp__SHGetMalloc@4       004509f4     shell32:SHELL32.dll
 0004:000009f8       __imp__SHGetPathFromIDListA@8 004509f8     shell32:SHELL32.dll
 0004:000009fc       __imp__SHBrowseForFolderA@4 004509fc     shell32:SHELL32.dll
 0004:00000a00       \177SHELL32_NULL_THUNK_DATA 00450a00     shell32:SHELL32.dll
 0004:00000a04       __imp__SetTimer@16         00450a04     user32:USER32.dll
 0004:00000a08       __imp__SendMessageA@16     00450a08     user32:USER32.dll
 0004:00000a0c       __imp__GetDC@4             00450a0c     user32:USER32.dll
 0004:00000a10       __imp__EnableWindow@8      00450a10     user32:USER32.dll
 0004:00000a14       __imp__DrawTextA@20        00450a14     user32:USER32.dll
 0004:00000a18       __imp__GetIconInfo@8       00450a18     user32:USER32.dll
 0004:00000a1c       __imp__ReleaseDC@8         00450a1c     user32:USER32.dll
 0004:00000a20       \177USER32_NULL_THUNK_DATA 00450a20     user32:USER32.dll
 0004:00000a24       __imp__cvSmooth            00450a24     cv:cv100.dll
 0004:00000a28       __imp__cvCvtColor          00450a28     cv:cv100.dll
 0004:00000a2c       __imp__cvConvexHull2       00450a2c     cv:cv100.dll
 0004:00000a30       __imp__cvFitEllipse2       00450a30     cv:cv100.dll
 0004:00000a34       __imp__cvContourArea       00450a34     cv:cv100.dll
 0004:00000a38       __imp__cvArcLength         00450a38     cv:cv100.dll
 0004:00000a3c       \177cv100_NULL_THUNK_DATA  00450a3c     cv:cv100.dll
 0004:00000a40       __imp__cvCreateImage       00450a40     cxcore:cxcore100.dll
 0004:00000a44       __imp__cvReleaseImage      00450a44     cxcore:cxcore100.dll
 0004:00000a48       __imp__cvFlip              00450a48     cxcore:cxcore100.dll
 0004:00000a4c       __imp__cvSetZero           00450a4c     cxcore:cxcore100.dll
 0004:00000a50       __imp__cvCreateSeq         00450a50     cxcore:cxcore100.dll
 0004:00000a54       __imp__cvCreateMemStorage  00450a54     cxcore:cxcore100.dll
 0004:00000a58       __imp__cvEndWriteSeq       00450a58     cxcore:cxcore100.dll
 0004:00000a5c       __imp__cvCreateSeqBlock    00450a5c     cxcore:cxcore100.dll
 0004:00000a60       __imp__cvChangeSeqBlock    00450a60     cxcore:cxcore100.dll
 0004:00000a64       __imp__cvStartAppendToSeq  00450a64     cxcore:cxcore100.dll
 0004:00000a68       __imp__cvStartReadSeq      00450a68     cxcore:cxcore100.dll
 0004:00000a6c       __imp__cvReleaseMemStorage 00450a6c     cxcore:cxcore100.dll
 0004:00000a70       __imp__cvClearSeq          00450a70     cxcore:cxcore100.dll
 0004:00000a74       __imp__cvLine              00450a74     cxcore:cxcore100.dll
 0004:00000a78       __imp__cvSeqPush           00450a78     cxcore:cxcore100.dll
 0004:00000a7c       __imp__cvGetImageROI       00450a7c     cxcore:cxcore100.dll
 0004:00000a80       \177cxcore100_NULL_THUNK_DATA 00450a80     cxcore:cxcore100.dll
 0004:00000a84       __imp__cvSaveImage         00450a84     highgui:highgui100.dll
 0004:00000a88       __imp__cvLoadImage         00450a88     highgui:highgui100.dll
 0004:00000a8c       \177highgui100_NULL_THUNK_DATA 00450a8c     highgui:highgui100.dll

 entry point at        0001:00042320

 Static symbols

 0001:00002370       _$E229                     00403370 f   cnt_trafficDlg.obj
 0001:00002390       _$E227                     00403390 f   cnt_trafficDlg.obj
 0001:000023a0       _$E235                     004033a0 f   cnt_trafficDlg.obj
 0001:000023c0       _$E233                     004033c0 f   cnt_trafficDlg.obj
 0001:000021f0       _$E229                     004031f0 f   cnt_traffic.obj
 0001:00002210       _$E227                     00403210 f   cnt_traffic.obj
 0001:00002220       _$E235                     00403220 f   cnt_traffic.obj
 0001:00002240       _$E233                     00403240 f   cnt_traffic.obj
 0001:000022c0       _$E246                     004032c0 f   cnt_traffic.obj
 0001:000022e0       _$E244                     004032e0 f   cnt_traffic.obj
 0001:000204f0       ?ima_jpeg_error_exit@@YAXPAUjpeg_common_struct@@@Z 004214f0 f   cximage:ximajpg.obj
 0001:00037670       _initial_setup             00438670 f   Jpeg:Jcmaster.obj
 0001:00037840       _validate_script           00438840 f   Jpeg:Jcmaster.obj
 0001:00037bf0       _prepare_for_pass          00438bf0 f   Jpeg:Jcmaster.obj
 0001:00037d90       _select_scan_parameters    00438d90 f   Jpeg:Jcmaster.obj
 0001:00037e90       _per_scan_setup            00438e90 f   Jpeg:Jcmaster.obj
 0001:00038060       _pass_startup              00439060 f   Jpeg:Jcmaster.obj
 0001:00038090       _finish_pass_master        00439090 f   Jpeg:Jcmaster.obj
 0001:00037060       _rgb_ycc_start             00438060 f   Jpeg:Jccolor.obj
 0001:00037140       _rgb_ycc_convert           00438140 f   Jpeg:Jccolor.obj
 0001:00037270       _rgb_gray_convert          00438270 f   Jpeg:Jccolor.obj
 0001:00037320       _cmyk_ycck_convert         00438320 f   Jpeg:Jccolor.obj
 0001:00037490       _grayscale_convert         00438490 f   Jpeg:Jccolor.obj
 0001:00037500       _null_convert              00438500 f   Jpeg:Jccolor.obj
 0001:000375a0       _null_method               004385a0 f   Jpeg:Jccolor.obj
 0001:00036580       _start_pass_downsample     00437580 f   Jpeg:Jcsample.obj
 0001:00036590       _sep_downsample            00437590 f   Jpeg:Jcsample.obj
 0001:00036620       _int_downsample            00437620 f   Jpeg:Jcsample.obj
 0001:00036750       _expand_right_edge         00437750 f   Jpeg:Jcsample.obj
 0001:000367b0       _fullsize_downsample       004377b0 f   Jpeg:Jcsample.obj
 0001:00036800       _h2v1_downsample           00437800 f   Jpeg:Jcsample.obj
 0001:000368b0       _h2v2_downsample           004378b0 f   Jpeg:Jcsample.obj
 0001:00036990       _h2v2_smooth_downsample    00437990 f   Jpeg:Jcsample.obj
 0001:00036c80       _fullsize_smooth_downsample 00437c80 f   Jpeg:Jcsample.obj
 0001:00035ef0       _start_pass_prep           00436ef0 f   Jpeg:Jcprepct.obj
 0001:00035f40       _pre_process_data          00436f40 f   Jpeg:Jcprepct.obj
 0001:000360c0       _expand_bottom_edge        004370c0 f   Jpeg:Jcprepct.obj
 0001:00036100       _pre_process_context       00437100 f   Jpeg:Jcprepct.obj
 0001:000362d0       _create_context_buffer     004372d0 f   Jpeg:Jcprepct.obj
 0001:00035910       _start_pass_fdctmgr        00436910 f   Jpeg:Jcdctmgr.obj
 0001:00035ae0       _forward_DCT               00436ae0 f   Jpeg:Jcdctmgr.obj
 0001:00035c80       _forward_DCT_float         00436c80 f   Jpeg:Jcdctmgr.obj
 0001:00034ca0       _start_pass_phuff          00435ca0 f   Jpeg:Jcphuff.obj
 0001:00034e20       _encode_mcu_DC_first       00435e20 f   Jpeg:Jcphuff.obj
 0001:00034f80       _emit_bits                 00435f80 f   Jpeg:Jcphuff.obj
 0001:00035060       _dump_buffer               00436060 f   Jpeg:Jcphuff.obj
 0001:000350a0       _emit_symbol               004360a0 f   Jpeg:Jcphuff.obj
 0001:000350f0       _emit_restart              004360f0 f   Jpeg:Jcphuff.obj
 0001:000351a0       _flush_bits                004361a0 f   Jpeg:Jcphuff.obj
 0001:000351c0       _emit_eobrun               004361c0 f   Jpeg:Jcphuff.obj
 0001:00035240       _emit_buffered_bits        00436240 f   Jpeg:Jcphuff.obj
 0001:00035280       _encode_mcu_AC_first       00436280 f   Jpeg:Jcphuff.obj
 0001:00035460       _encode_mcu_DC_refine      00436460 f   Jpeg:Jcphuff.obj
 0001:00035520       _encode_mcu_AC_refine      00436520 f   Jpeg:Jcphuff.obj
 0001:00035750       _finish_pass_phuff         00436750 f   Jpeg:Jcphuff.obj
 0001:00035790       _finish_pass_gather_phuff  00436790 f   Jpeg:Jcphuff.obj
 0001:00034340       _start_pass_huff           00435340 f   Jpeg:Jchuff.obj
 0001:000344b0       _encode_mcu_huff           004354b0 f   Jpeg:Jchuff.obj
 0001:000345e0       _encode_one_block          004355e0 f   Jpeg:Jchuff.obj
 0001:00034770       _emit_bits                 00435770 f   Jpeg:Jchuff.obj
 0001:00034840       _dump_buffer               00435840 f   Jpeg:Jchuff.obj
 0001:00034870       _emit_restart              00435870 f   Jpeg:Jchuff.obj
 0001:00034900       _flush_bits                00435900 f   Jpeg:Jchuff.obj
 0001:00034930       _finish_pass_huff          00435930 f   Jpeg:Jchuff.obj
 0001:000349b0       _encode_mcu_gather         004359b0 f   Jpeg:Jchuff.obj
 0001:00034a90       _htest_one_block           00435a90 f   Jpeg:Jchuff.obj
 0001:00034b70       _finish_pass_gather        00435b70 f   Jpeg:Jchuff.obj
 0001:00033720       _start_pass_coef           00434720 f   Jpeg:Jccoefct.obj
 0001:000337d0       _start_iMCU_row            004347d0 f   Jpeg:Jccoefct.obj
 0001:00033820       _compress_data             00434820 f   Jpeg:Jccoefct.obj
 0001:00033a80       _compress_first_pass       00434a80 f   Jpeg:Jccoefct.obj
 0001:00033cd0       _compress_output           00434cd0 f   Jpeg:Jccoefct.obj
 0001:00033550       _start_pass_main           00434550 f   Jpeg:Jcmainct.obj
 0001:000335a0       _process_data_simple_main  004345a0 f   Jpeg:Jcmainct.obj
 0001:000315d0       _write_marker_header       004325d0 f   Jpeg:Jcmarker.obj
 0001:00031610       _emit_marker               00432610 f   Jpeg:Jcmarker.obj
 0001:00031630       _emit_byte                 00432630 f   Jpeg:Jcmarker.obj
 0001:00031670       _emit_2bytes               00432670 f   Jpeg:Jcmarker.obj
 0001:000316a0       _write_marker_byte         004326a0 f   Jpeg:Jcmarker.obj
 0001:000316c0       _write_file_header         004326c0 f   Jpeg:Jcmarker.obj
 0001:00031710       _emit_jfif_app0            00432710 f   Jpeg:Jcmarker.obj
 0001:000317c0       _emit_adobe_app14          004327c0 f   Jpeg:Jcmarker.obj
 0001:00031860       _write_frame_header        00432860 f   Jpeg:Jcmarker.obj
 0001:00031960       _emit_dqt                  00432960 f   Jpeg:Jcmarker.obj
 0001:00031a40       _emit_sof                  00432a40 f   Jpeg:Jcmarker.obj
 0001:00031b00       _write_scan_header         00432b00 f   Jpeg:Jcmarker.obj
 0001:00031be0       _emit_dht                  00432be0 f   Jpeg:Jcmarker.obj
 0001:00031ca0       _emit_dac                  00432ca0 f   Jpeg:Jcmarker.obj
 0001:00031cb0       _emit_dri                  00432cb0 f   Jpeg:Jcmarker.obj
 0001:00031ce0       _emit_sos                  00432ce0 f   Jpeg:Jcmarker.obj
 0001:00031dc0       _write_file_trailer        00432dc0 f   Jpeg:Jcmarker.obj
 0001:00031de0       _write_tables_only         00432de0 f   Jpeg:Jcmarker.obj
 0001:000309c0       _create_colormap           004319c0 f   Jpeg:Jquant1.obj
 0001:00030b20       _select_ncolors            00431b20 f   Jpeg:Jquant1.obj
 0001:00030c10       _output_value              00431c10 f   Jpeg:Jquant1.obj
 0001:00030c30       _create_colorindex         00431c30 f   Jpeg:Jquant1.obj
 0001:00030d70       _largest_input_value       00431d70 f   Jpeg:Jquant1.obj
 0001:00030d90       _alloc_fs_workspace        00431d90 f   Jpeg:Jquant1.obj
 0001:00030dd0       _start_pass_1_quant        00431dd0 f   Jpeg:Jquant1.obj
 0001:00030ec0       _create_odither_tables     00431ec0 f   Jpeg:Jquant1.obj
 0001:00030f20       _make_odither_array        00431f20 f   Jpeg:Jquant1.obj
 0001:00030f90       _color_quantize            00431f90 f   Jpeg:Jquant1.obj
 0001:00031050       _color_quantize3           00432050 f   Jpeg:Jquant1.obj
 0001:00031110       _quantize_ord_dither       00432110 f   Jpeg:Jquant1.obj
 0001:00031240       _quantize3_ord_dither      00432240 f   Jpeg:Jquant1.obj
 0001:00031370       _quantize_fs_dither        00432370 f   Jpeg:Jquant1.obj
 0001:00031540       _finish_pass_1_quant       00432540 f   Jpeg:Jquant1.obj
 0001:00031550       _new_color_map_1_quant     00432550 f   Jpeg:Jquant1.obj
 0001:0002f650       _init_error_limit          00430650 f   Jpeg:Jquant2.obj
 0001:0002f6f0       _start_pass_2_quant        004306f0 f   Jpeg:Jquant2.obj
 0001:0002f810       _prescan_quantize          00430810 f   Jpeg:Jquant2.obj
 0001:0002f890       _pass2_no_dither           00430890 f   Jpeg:Jquant2.obj
 0001:0002f960       _fill_inverse_cmap         00430960 f   Jpeg:Jquant2.obj
 0001:0002fa80       _find_nearby_colors        00430a80 f   Jpeg:Jquant2.obj
 0001:0002fc70       _find_best_colors          00430c70 f   Jpeg:Jquant2.obj
 0001:0002fdd0       _pass2_fs_dither           00430dd0 f   Jpeg:Jquant2.obj
 0001:000300b0       _finish_pass1              004310b0 f   Jpeg:Jquant2.obj
 0001:000300e0       _select_colors             004310e0 f   Jpeg:Jquant2.obj
 0001:00030170       _update_box                00431170 f   Jpeg:Jquant2.obj
 0001:000305c0       _median_cut                004315c0 f   Jpeg:Jquant2.obj
 0001:00030700       _find_biggest_color_pop    00431700 f   Jpeg:Jquant2.obj
 0001:00030740       _find_biggest_volume       00431740 f   Jpeg:Jquant2.obj
 0001:00030770       _compute_color             00431770 f   Jpeg:Jquant2.obj
 0001:00030900       _finish_pass2              00431900 f   Jpeg:Jquant2.obj
 0001:00030910       _new_color_map_2_quant     00431910 f   Jpeg:Jquant2.obj
 0001:0002efc0       _build_ycc_rgb_table       0042ffc0 f   Jpeg:Jdmerge.obj
 0001:0002f080       _start_pass_merged_upsample 00430080 f   Jpeg:Jdmerge.obj
 0001:0002f0a0       _merged_2v_upsample        004300a0 f   Jpeg:Jdmerge.obj
 0001:0002f170       _merged_1v_upsample        00430170 f   Jpeg:Jdmerge.obj
 0001:0002f1b0       _h2v1_merged_upsample      004301b0 f   Jpeg:Jdmerge.obj
 0001:0002f310       _h2v2_merged_upsample      00430310 f   Jpeg:Jdmerge.obj
 0001:0002ea90       _build_ycc_rgb_table       0042fa90 f   Jpeg:Jdcolor.obj
 0001:0002eb50       _ycc_rgb_convert           0042fb50 f   Jpeg:Jdcolor.obj
 0001:0002ec80       _null_convert              0042fc80 f   Jpeg:Jdcolor.obj
 0001:0002ed10       _grayscale_convert         0042fd10 f   Jpeg:Jdcolor.obj
 0001:0002ed40       _gray_rgb_convert          0042fd40 f   Jpeg:Jdcolor.obj
 0001:0002edb0       _ycck_cmyk_convert         0042fdb0 f   Jpeg:Jdcolor.obj
 0001:0002ef20       _start_pass_dcolor         0042ff20 f   Jpeg:Jdcolor.obj
 0001:0002e340       _start_pass_upsample       0042f340 f   Jpeg:Jdsample.obj
 0001:0002e360       _sep_upsample              0042f360 f   Jpeg:Jdsample.obj
 0001:0002e460       _fullsize_upsample         0042f460 f   Jpeg:Jdsample.obj
 0001:0002e470       _noop_upsample             0042f470 f   Jpeg:Jdsample.obj
 0001:0002e480       _int_upsample              0042f480 f   Jpeg:Jdsample.obj
 0001:0002e5a0       _h2v1_upsample             0042f5a0 f   Jpeg:Jdsample.obj
 0001:0002e600       _h2v2_upsample             0042f600 f   Jpeg:Jdsample.obj
 0001:0002e690       _h2v1_fancy_upsample       0042f690 f   Jpeg:Jdsample.obj
 0001:0002e760       _h2v2_fancy_upsample       0042f760 f   Jpeg:Jdsample.obj
 0001:0002de60       _start_pass_dpost          0042ee60 f   Jpeg:Jdpostct.obj
 0001:0002df60       _post_process_1pass        0042ef60 f   Jpeg:Jdpostct.obj
 0001:0002dfe0       _post_process_prepass      0042efe0 f   Jpeg:Jdpostct.obj
 0001:0002e090       _post_process_2pass        0042f090 f   Jpeg:Jdpostct.obj
 0001:0002db90       _start_pass                0042eb90 f   Jpeg:Jddctmgr.obj
 0001:0002ce20       _start_pass_phuff_decoder  0042de20 f   Jpeg:Jdphuff.obj
 0001:0002d0a0       _decode_mcu_DC_first       0042e0a0 f   Jpeg:Jdphuff.obj
 0001:0002d2d0       _process_restart           0042e2d0 f   Jpeg:Jdphuff.obj
 0001:0002d360       _decode_mcu_AC_first       0042e360 f   Jpeg:Jdphuff.obj
 0001:0002d5c0       _decode_mcu_DC_refine      0042e5c0 f   Jpeg:Jdphuff.obj
 0001:0002d6c0       _decode_mcu_AC_refine      0042e6c0 f   Jpeg:Jdphuff.obj
 0001:0002c750       _start_pass_huff_decoder   0042d750 f   Jpeg:Jdhuff.obj
 0001:0002c8a0       _decode_mcu                0042d8a0 f   Jpeg:Jdhuff.obj
 0001:0002cce0       _process_restart           0042dce0 f   Jpeg:Jdhuff.obj
 0001:0002b380       _start_input_pass          0042c380 f   Jpeg:Jdcoefct.obj
 0001:0002b3a0       _start_iMCU_row            0042c3a0 f   Jpeg:Jdcoefct.obj
 0001:0002b400       _start_output_pass         0042c400 f   Jpeg:Jdcoefct.obj
 0001:0002b450       _decompress_onepass        0042c450 f   Jpeg:Jdcoefct.obj
 0001:0002b6a0       _dummy_consume_data        0042c6a0 f   Jpeg:Jdcoefct.obj
 0001:0002b6b0       _consume_data              0042c6b0 f   Jpeg:Jdcoefct.obj
 0001:0002b8d0       _decompress_data           0042c8d0 f   Jpeg:Jdcoefct.obj
 0001:0002ba80       _smoothing_ok              0042ca80 f   Jpeg:Jdcoefct.obj
 0001:0002bba0       _decompress_smooth_data    0042cba0 f   Jpeg:Jdcoefct.obj
 0001:0002ac60       _alloc_funny_pointers      0042bc60 f   Jpeg:Jdmainct.obj
 0001:0002ad10       _start_pass_main           0042bd10 f   Jpeg:Jdmainct.obj
 0001:0002ad90       _make_funny_pointers       0042bd90 f   Jpeg:Jdmainct.obj
 0001:0002aee0       _process_data_simple_main  0042bee0 f   Jpeg:Jdmainct.obj
 0001:0002af50       _process_data_context_main 0042bf50 f   Jpeg:Jdmainct.obj
 0001:0002b090       _set_wraparound_pointers   0042c090 f   Jpeg:Jdmainct.obj
 0001:0002b1a0       _set_bottom_pointers       0042c1a0 f   Jpeg:Jdmainct.obj
 0001:0002b240       _process_data_crank_post   0042c240 f   Jpeg:Jdmainct.obj
 0001:00029f40       _alloc_small               0042af40 f   Jpeg:Jmemmgr.obj
 0001:0002a070       _out_of_memory             0042b070 f   Jpeg:Jmemmgr.obj
 0001:0002a090       _alloc_large               0042b090 f   Jpeg:Jmemmgr.obj
 0001:0002a140       _alloc_sarray              0042b140 f   Jpeg:Jmemmgr.obj
 0001:0002a1f0       _alloc_barray              0042b1f0 f   Jpeg:Jmemmgr.obj
 0001:0002a2a0       _request_virt_sarray       0042b2a0 f   Jpeg:Jmemmgr.obj
 0001:0002a310       _request_virt_barray       0042b310 f   Jpeg:Jmemmgr.obj
 0001:0002a380       _realize_virt_arrays       0042b380 f   Jpeg:Jmemmgr.obj
 0001:0002a500       _access_virt_sarray        0042b500 f   Jpeg:Jmemmgr.obj
 0001:0002a650       _do_sarray_io              0042b650 f   Jpeg:Jmemmgr.obj
 0001:0002a6f0       _access_virt_barray        0042b6f0 f   Jpeg:Jmemmgr.obj
 0001:0002a840       _do_barray_io              0042b840 f   Jpeg:Jmemmgr.obj
 0001:0002a8e0       _free_pool                 0042b8e0 f   Jpeg:Jmemmgr.obj
 0001:0002a9e0       _self_destruct             0042b9e0 f   Jpeg:Jmemmgr.obj
 0001:00029850       _start_input_pass          0042a850 f   Jpeg:Jdinput.obj
 0001:00029890       _per_scan_setup            0042a890 f   Jpeg:Jdinput.obj
 0001:00029a40       _latch_quant_tables        0042aa40 f   Jpeg:Jdinput.obj
 0001:00029af0       _finish_input_pass         0042aaf0 f   Jpeg:Jdinput.obj
 0001:00029b10       _consume_markers           0042ab10 f   Jpeg:Jdinput.obj
 0001:00029bd0       _initial_setup             0042abd0 f   Jpeg:Jdinput.obj
 0001:00029dc0       _reset_input_controller    0042adc0 f   Jpeg:Jdinput.obj
 0001:000290d0       _std_huff_tables           0042a0d0 f   Jpeg:Jcparam.obj
 0001:00029130       _add_huff_table            0042a130 f   Jpeg:Jcparam.obj
 0001:00029700       _fill_a_scan               0042a700 f   Jpeg:Jcparam.obj
 0001:00029740       _fill_scans                0042a740 f   Jpeg:Jcparam.obj
 0001:00029790       _fill_dc_scans             0042a790 f   Jpeg:Jcparam.obj
 0001:00028720       _error_exit                00429720 f   Jpeg:Jerror.obj
 0001:00028740       _output_message            00429740 f   Jpeg:Jerror.obj
 0001:00028780       _emit_message              00429780 f   Jpeg:Jerror.obj
 0001:000287c0       _format_message            004297c0 f   Jpeg:Jerror.obj
 0001:00028870       _reset_error_mgr           00429870 f   Jpeg:Jerror.obj
 0001:000269b0       _next_marker               004279b0 f   Jpeg:Jdmarker.obj
 0001:00026b30       _get_interesting_appn      00427b30 f   Jpeg:Jdmarker.obj
 0001:00026c70       _examine_app0              00427c70 f   Jpeg:Jdmarker.obj
 0001:00026f00       _examine_app14             00427f00 f   Jpeg:Jdmarker.obj
 0001:00026fe0       _skip_variable             00427fe0 f   Jpeg:Jdmarker.obj
 0001:00027080       _read_markers              00428080 f   Jpeg:Jdmarker.obj
 0001:000273c0       _get_soi                   004283c0 f   Jpeg:Jdmarker.obj
 0001:00027480       _get_sof                   00428480 f   Jpeg:Jdmarker.obj
 0001:000277b0       _get_sos                   004287b0 f   Jpeg:Jdmarker.obj
 0001:00027ac0       _get_dht                   00428ac0 f   Jpeg:Jdmarker.obj
 0001:00027e30       _get_dqt                   00428e30 f   Jpeg:Jdmarker.obj
 0001:000280c0       _get_dri                   004290c0 f   Jpeg:Jdmarker.obj
 0001:000281b0       _first_marker              004291b0 f   Jpeg:Jdmarker.obj
 0001:00028250       _read_restart_marker       00429250 f   Jpeg:Jdmarker.obj
 0001:000282e0       _reset_marker_reader       004292e0 f   Jpeg:Jdmarker.obj
 0001:000283f0       _save_marker               004293f0 f   Jpeg:Jdmarker.obj
 0001:00026380       _use_merged_upsample       00427380 f   Jpeg:Jdmaster.obj
 0001:000264c0       _master_selection          004274c0 f   Jpeg:Jdmaster.obj
 0001:000266a0       _prepare_range_limit_table 004276a0 f   Jpeg:Jdmaster.obj
 0001:00026720       _prepare_for_output_pass   00427720 f   Jpeg:Jdmaster.obj
 0001:00026880       _finish_output_pass        00427880 f   Jpeg:Jdmaster.obj
 0001:00025e20       _output_pass_setup         00426e20 f   Jpeg:Jdapistd.obj
 0001:00025a40       _default_decompress_parms  00426a40 f   Jpeg:Jdapimin.obj
 0001:00042709       _$E373                     00443709 f   mfcs42:appmodul.obj
 0001:0004270e       _$E372                     0044370e f   mfcs42:appmodul.obj
 0001:000421b4       ?ArrayUnwindFilter@@YAHPAU_EXCEPTION_POINTERS@@@Z 004431b4 f   msvcrt:ehvecdtr.obj

FIXUPS: 436e1 29 c fffffe3f fffffe36 19 f 33 6a 1b fffffe50 d ffffff62
FIXUPS: 43237 ffffff1a 45 30 ffff8827 85 22 25 15 14 15 4a 8c 1e 19 46
FIXUPS: 3bc6b 2f 4f 2f 77 2e 25 16 11 212 30 20 13 1f b b 5a b b 75b6 ffff7d99
FIXUPS: 3b4ad 21 1e 39 d 13 14 1a 17 1d 16 1f 17 4e 25 14 42 1f 1a 3b 1c
FIXUPS: 3b78f 19 15 6b 95 84 18 1a 45 20 8d97 8 b 8 9 b 8 b ffff693a 20
FIXUPS: 3b12b 20 20 13 1d 13 6d 1d 51 1f b7 9 23 9 9 20 1d 8 2f a e d fffff904
FIXUPS: 3ad5e 10 19 29 5a f 49 12 f 3d c 1d 15 6 1d 17 1f 1d a 21 14 9
FIXUPS: 3afc2 b b 12 3d 1d 35 20 96cb ffff61da 1f 11 4d 6 1d 17 1f 11 39
FIXUPS: 3aa70 b e 14 2f 86 1c b e 3d 2f 15 22 24 b e 24 10 19 29 44 b fffff933
FIXUPS: 3a67e c 14 6 12 1c b d 17 c 14 6 12 1a b d 2b 6 1d 17 1f 11 4d
FIXUPS: 3a853 1d 17 1f 11 4d 6 1d fffff878 17 75 1f b b 14 1f 2b 9 6 b
FIXUPS: 3a2e3 12 af 42 f 30 f 6 35 1f 14 12 17 1f 3e 4d 7a 1c 1c 1c fffff6a6
FIXUPS: 39cfd 12 17 33 e f1 21 1a 6 16 1d 17 1f 14 12 17 22 12 2b 11 a
FIXUPS: 39fda 2a e f8 6 16 1d 17 1f 14 4e6c 26 2c 16 65 d 15 5d 7d 37 63
FIXUPS: 3f2ae 5a 15 1b 2c 3c 2b 32 8e 53 ffffa607 21 3a e f1 21 1a 6 16
FIXUPS: 39cb3 17 4bc0 1d 16 1f 17 4e 25 14 42 1f 1a 4d 3d 3e 21 1e f6 3d
FIXUPS: 3ec6d 21 1e 24 1c 24 1c 1c d 1d 126 30 25 50 fffff65e a 13 9 6
FIXUPS: 3e5e0 8 1c a c a 19 6 12 d 8 2a 1f a 9 15 9 9 6e 62 1d 8 43 d 13
FIXUPS: 3e859 1a fffff923 15 9 9 ae 11 e 9 a d 9 f 59 20 24 9 29 a e d
FIXUPS: 3e3db 9 9 6e 1d 4f 9 15 9 9 42 1f fffff916 1d 13 1d 13 1d 13 1d
FIXUPS: 3df2e 6d 1d 51 1f 43 a 13 9 6 19 8 1c a c a 19 6 12 d 8 2a 1f a
FIXUPS: 44a09 c c c c c c c c c c c c c b ffff91cb 13 1d 13 1d 20 20 20
FIXUPS: 3dd5b 20 20 20 20 20 20 20 20 6a47 16 9 b 8 9 a b b b e e e e c
FIXUPS: 44957 9 9 c c c b 8 9 9 9 c c 9 9 c c ffff9187 16 13 13 3b c f
FIXUPS: 3dc25 c c c f 6b6f 9 b b b b 9 9 a c b b 8 a c 8 a 18 b 9 ffff902c
FIXUPS: 3d8d1 f b 21 13 25 f f b 21 13 28 f f b 21 13 28 f f b 21 13 25
FIXUPS: 3dadf f 32 18 13 13 13 fffffa59 22 21 39 16 13 13 16 16 13 13 f
FIXUPS: 3d704 13 25 f f b 21 13 25 f f b 21 13 25 f f b 21 13 fffffa17
FIXUPS: 3d2db 12 f 3d 10 28 12 14 16 1a 25 f 2d c 25 f f 9 9 9 6 f 13 16
FIXUPS: 3d50f 25 f 23 f 24 e fffff679 1f 9 34 8f 1f 9 34 8e 25 c 34 92
FIXUPS: 3cf11 c 40 a1 25 c 40 a1 25 c 40 22 4a 2f f f 4e 12 f fffff471
FIXUPS: 3c739 2e 3d 10 2f 9 f e e 3b 15 28 12 f 44 12 13 1a 18 25 c 8 e
FIXUPS: 3ca4c 1f 9 34 8e 1f 9 34 fffff7d4 b e e f 1e 80 12 52 14 1b 19
FIXUPS: 3c4fd 9 1f f b e e f 21 7a 1a a b b b e 18 1e 35 15 613e 1b 1b
FIXUPS: 42864 254 72 8 1f96 e e e e c ffffe15f 24 d 1c ffff94c1 1c 1c c
FIXUPS: 3c209 32 41 4a 27 9 1c c 17 9 1c 51a8 39 56 b0 24 40 8 1b 3e f1
FIXUPS: 418e4 d1 b4 39 45 39 85 d1 cf 48 2bd 4e ad 2d5 48 39 18b ac 76
FIXUPS: 4275d 4b 21 ffffe04c 3f 34 28 48 28 cd 6f 24 40 8 1b 3f 34 28 48
FIXUPS: 40bee da 24 40 8 1b 3f e0 e4 d1 b4 39 45 138 f0 d1 fffe551d 69
FIXUPS: 26d2b 187fd 178 39 238 26 15 380 28 73 24 40 e 13 21 3c 2a9 7b
FIXUPS: 401bf 2f7 2b b1 4f 28 4a cc 6f 24 40 8 fffe69dd e 24 e c6 1d 55
FIXUPS: 274a8 27 6 b 75 1c 1e a 6 d 9 2d 7 29 11 fffff72d 9a 2b 295 fffff7e0
FIXUPS: 268d1 6 1f 10 3b 3da6 f f3 fffff477 16 fffffc93 5d 10 153 14a fffffb1a
FIXUPS: 27978 1ad 10b f 45e 12 35 1b 43 1c 1c 1c 8a 18 b62 174 353 3d2
FIXUPS: 29642 ffffdb63 e 2cf7 a0 f 5d 10 58 6 9d 24 14 14 14 23 a3 c c
FIXUPS: 2a20b c 3f0 10 10 13 10 10 e 10 10 13 11 f f 12 adf 87 31 5b 70
FIXUPS: 2b3f1 59 17 5d 17 98 28 59 173 28 5e 1a2 39 2c 12 d ffffee4a 6
FIXUPS: 2a938 19 245 2b 143 19 17 17 33 2c52 2a 93 59 32 87 59 32 156 ffffe562
FIXUPS: 2c2f3 9d 8c 98 19b 234 5b7 ffffedbc 167 2af 4e ffffedb5 c f 135
FIXUPS: 2afec 16 d 9c 43 11 90 4844 35e fffff5d4 248 109 fffff7cc fffff20a
FIXUPS: 2e042 90 a5 59 2a 1a2 8c 59 3a 9a a0 58 c5 91 60 5a 96 d5 85 ffffebf4
FIXUPS: 2d68e 13d e ef af 403a 2a af 258 19 12e 1c 3d 10 6d 25f 26a ffffe279
FIXUPS: 307c0 10 24 124 b3 1e 5a6 138 54 a 11 4c4 7 be 7 ffffe8c8 1d 12e
FIXUPS: 2f99e 3144 3b 47 11 11 c 29 12 5f 21 7 14 1c 38 8 d 1d 11 d 21
FIXUPS: 32d6e 1f d 18 19 23 14 2b 11 17 ffffeb45 6 e0c 20 8 8 8 8 8 8 8
FIXUPS: 3280f 8 18 d d 35 86 1d 17 13 6f 13 e 24 10 3f e 34 a a a 18 12
FIXUPS: 32e7c 6 8 9 2d 7 28 8 6 fffff6fd a 18 b 5a d 1d 28 1a 13 1c 8 8
FIXUPS: 32734 8 8 8 f 12 f 10 10 8 2fa8 91 28 72 22 28 4a 60 dc 186 1b
FIXUPS: 35c08 1b ffffea80 11 81 1c2 8e d1 138 8e 9a 1d8 ffffef0c 1d 1c
FIXUPS: 33ded 1e 1e 1c 1a fffff00a 33f9 67 84 31 42 8 47 8f 2f a2 a7 f
FIXUPS: 36630 39 f 21 8 54 7a 6 30 75 17 ffffec1f e a0 62 d4 18 49 6c 13
FIXUPS: 38ce5 254 19 ffffe724 15a 1c 3f b2 e3 2ed fffff1e1 15a b1 4a d3
FIXUPS: 37239 fffffbc0 ffffefd6 8f 98 f 105 27 ac 1a 10 1f 25 60 55 12
FIXUPS: 3622a fffd72e9 5a 1e 29 57 1a 4f 37c 1a c 6d be 19 c 72 fffff134
FIXUPS: 44044 a fffc8e3b 116 2b645 13 1c5 1a 17 17 27 3fb 6 3f 6 6e fffd780f
FIXUPS: 440a7 a fffc9c39 91 6f 50 67 30 fffff1f9 9 1c d1 17 2a 8 17 2a
FIXUPS: d252 d 8 8 1d 22 8 ed 13 e7 22 d 23 11 1f83 11 12 73 1e6 190 155
FIXUPS: fb20 60 1a3 1e 36 2d 71 34272 a fffcbdef 69 10 14d f2 1a af 3d
FIXUPS: 102e6 40 36 36 23 32 6a 27 ffffe2ec b6 35 2a 40 b6 31 f 1b 9 9
FIXUPS: e9e8 30 3564f a fffca9f8 31f 1e 6b 20 38 1c d d4 7 1c6 19 1df 18
FIXUPS: f3c7 18 61 21d9 21 ea 1d76 12e ffffab18 24 3a 48 46 c 2f c 12 a3
FIXUPS: e2fb 4a 25 c4 1e 27 b e a9 d 12 ee 58 b e 94 d 2525 17 43 a 3c
FIXUPS: 10d79 1b 7a 12 42 1ff 77 74 6c b 9 37 121 56 24 11 b d 1b 18 14
FIXUPS: 11458 2e 24 68 13 bf 39fc 10 3e 1a 18 14 13 17 13 39 1b 38 14 13
FIXUPS: 15186 20 44 2f0ed b b b b b a fffcc681 d 48 34 1f 37 d 80 33779
FIXUPS: 14c5b 19 13 2f60d a fffd0a47 2f5cf a fffd0a8d 32 19 a 10 1c 2c
FIXUPS: 14e04 18 d 13 17 27 e 38 d 13 22 2f 55 1d 11 10 fffff855 c f b
FIXUPS: 14856 26 2f9b8 a fffd066f 18 e 12 38 c 63 7a a8 19 13 2f77a a fffd08d2
FIXUPS: 14b3d 23 d 23 d 3b 13 15 11 2f663 fffd017b 18 14 1b 13 39 1b 3a
FIXUPS: 144eb 26 10 44 2fc62 b b a fffd03cd d 16 58 2fbc5 a fffd048d 20
FIXUPS: 146db 22 21 d 3e 2faae a fffd05e7 fffff297 306c5 a fffcf984 279
FIXUPS: 14037 d d 30 b 12 b b5 67 2ffbf a fffd00da 11 11 f b 17 26 2fec3
FIXUPS: 441ae fffd016d 1e 1d 11 20 10 3e 193c f 1a c 1c 2e605 a fffcf2bf
FIXUPS: 440c4 a fffcf5e2 30a34 a fffcf642 309d4 a fffcf685 1f 7a 78 d 30
FIXUPS: 138ec 12 b 1d 6a 30794 a fffcf8e2 30734 a fffd141c 5f 18 38 59
FIXUPS: 1567f 57 17 dd 2b 1b 10 42 17 10b 30 1c 2e957 a fffd1864 10 20
FIXUPS: 15c0a 1a c 1c 2e6fb a fffd1930 25 10 20 1ca 53 1a1 1f5 15 71 15
FIXUPS: 16480 d1 b 39 b 6d b 3a b 524 4e d1 1b 7a 10 20 45 1a c 1c 2d59b
FIXUPS: 44391 fffd107b ce 40 80c2 10 4f 1c 26fa0 a fffd90ea 12 15 7 13
FIXUPS: 1d738 a 9 20 c d 1d 20 22 13 f 67 8e 133 ec 5f 21 1c 26a62 a fffd17f3
FIXUPS: 1cf25 16b 1c 2750b a fffd8b67 61 14 20 85 c c 1c 19 1c 2732c a
FIXUPS: 1d320 10 20 62 f 38 80 a6 13 1d 17 40 12 9 10 fffff45b 1c 27b2f
FIXUPS: 44581 fffd8543 10 20 9b 75 e 15 b 16 e 7 b d c d c 3d 1c 278a4
FIXUPS: 445a1 fffd8820 14 20 28 a 50 5f 12 fffff467 1c 281cc a fffd7f6b
FIXUPS: 1c4c1 27 11 1c 11 18 1b 9 1b 22 51 20 3d 1c 27eee a fffd8138 125
FIXUPS: 1c7d2 13 a 84 10 e5 11 9 20 fffff34c 30 3d 13 5b 13 58 c 39 c 39
FIXUPS: 1bec7 36 23 36 d 36 d 36 d 32 e1 37 7a 18 22 18 4d 3e 48 52 1f
FIXUPS: 1b446 55 6a 51 b2 18 22 18 56 9 50 4b 55 6a 51 b5 18 22 19 42 9
FIXUPS: 1b9f6 51 47 4c 4a ab 1f 29 17 55 2e fffff183 1c 296b7 b b a fffd698c
FIXUPS: 1aebd 11 19 9 20 12 a dc 66 70 18 22 1a 43 d 47 45 46 a8 18 22
FIXUPS: 1b34c 56 9 53 fffff78b 7 b 10 2e 11 1f 44 15 17 7 8 a 9 20 11 a
FIXUPS: 1acfb c 1c 3e 15 17 7 8 a 9 20 e a 25 c fffff7e7 e a 32 21 b 19
FIXUPS: 1a6a7 15 1c 5c e 15 14 12 5e d6 49 cd 45 1c c 1c 29a97 a fffd65f3
FIXUPS: 1aafc 1a c 26 1e 16 fffff4e5 43 22 2a3e1 a fffd5c9c 2e 11 7 13
FIXUPS: 1a1b2 a 9 20 24 d 38 68 e 4e e2 e cd e 46 1c 29f88 a fffd60e6 15
FIXUPS: 1a5e8 e fffff371 13 10 13 10 13 10 1d4 1d 19 2c 9d 5f 46 3a 38
FIXUPS: 19e70 d e 1e 26 c c 9e 1a 10 11 35 14 2f 10 a fffff148 44 12 b
FIXUPS: 1920b 7 d 10 4b 1c 2b1f1 a fffd4e97 31 14 7 16 c d c 26 69 c 1a
FIXUPS: 1955f 67 83 21a a 5e 55 37 fffff3c4 2a 14 7 8 14 c d 7 10 35 53
FIXUPS: 18e3d 16 99 134 9 19 67 22 2b39c a fffd4cb1 d 10 11 7 8 11 c a
FIXUPS: 1918d fffff549 32 19 1f 1f 1a 24 1a 1d 1f 23 9e 26 1d 9 1c c 26
FIXUPS: 1896b 9 1c c 26 1d 9 1c 1b 9 2c 20b 25 76 fffff4ea 2c 2a 20 22
FIXUPS: 1829d 11b 15 7 8 11 c a 7 d 9 87 15 16 15 d 13 b2 15 d 13 d 13
FIXUPS: 18667 1c 2bdc4 a fffd36a5 7 d 13 e 1a e3 2e c 98 13 b6 10 74 c
FIXUPS: 17eaf 1c 2c55c a fffd3ae3 3f d f 3e f 20 9d 14 3c a4 18 d fffff4a7
FIXUPS: 17640 8 11 c a 7 d 14 f 32 f3 2a c 88 15 9d c 6b c 64 1c 2c9c9
FIXUPS: 44411 fffd3681 d 10 11 7 8 11 c fffff643 18 1a 26 13 d d e e b4
FIXUPS: 172a6 2d101 b a fffd2f54 1b 31 67 8 2cffa c fffd305b 1b 8d c b8
FIXUPS: 175a0 2ce45 c fffd3215 d 11 87bb 51 9c 9 66 12 2c 35 f 9c 69 41
FIXUPS: 20144 b 39 5b0 36 20 89 ffff6756 9b 1f 15 17 20 10 a a b b 1f 32
FIXUPS: 1f808 15a 70 f 15 15 15 5d 9 47 12 68 12 24 d 10 d 4d 8 37 8 38
FIXUPS: 1fc7b 34 8 4d 8 31 8 5d 8 2d fffff018 c 2b 66 80 30 1b e 1a 11f
FIXUPS: 1f103 d7 41 41 b 26 23 53 27 c 2b 70 1c 143 d4 24 21 24 67 66 5d
FIXUPS: 1f7a2 ffffeba2 17 5d 17 5d 17 5d 17 5d 17 5d 17 5d 17 5d 17 5d
FIXUPS: 1e6fb 5a 17 74 3a 1b 11 36e dd 41 41 b 26 23 61 2b9f 22d2d a fffd9578
FIXUPS: 1dd69 21 27 2b 9e c 4c 57 20 10 2d 32 16 36 2b 63 13 10 65 27 c
FIXUPS: 1e175 66 17 61 20 5d 17 337d 4e 1c d d 37 c 14 14 12 c 19 a 12
FIXUPS: 217b2 10 11 e 15 33 16 b a c 53 10 17 1f c 1e 1e 16 fffff565 8
FIXUPS: 20f03 41 8 31 17 14 10 31 46 b b d 39 f4 7 c 3e 25 21 24 37 10
FIXUPS: 44674 a fffdcc27 2a6 29 5d 2c 3c 15f4 4e ffffde3c 62 6 18 23afd
FIXUPS: 4463e fffdc531 21 33 23a92 c fffdc5da 14 24 2c 13 2b 4e 26 f 17
FIXUPS: 20d9a 1a 15 13 24 1e c 14 28 15a6 14 5 43 5 52 79 3c 14 11 14 5
FIXUPS: 225d7 14 5 14 5 d1 14 5 20 1f 5 b7 22 22c 1d 26 f 33 20 13c 2e0d
FIXUPS: 25a36 ffffbf79 88 167 5d 48 308 1d 24 23 117 23 7e f d 2a 9b 31
FIXUPS: 222b4 5 51 5 56 14 14 5 12 5 36 5 14 30fb 3e 1a 2a 1d 2b 8 5b 15
FIXUPS: 2564c 8 d 27 19 a 24 a 3d 9d 11 8 9 15 93 23 3f 46 8 8a 20 7 1c
FIXUPS: 24e16 31 c 1a 16 1f4 7 25 27 c b d 65 6 18 2b 1f59c c fffe0bbe
FIXUPS: 25325 1b 28 b 13 2d 24 6b 19 23 12 26 35 ffffefc6 11 d a 44 15
FIXUPS: 245b2 2a f 7 87 35 2b 7 16 f 72 c4 2a d3 114 21 9a 21 a1 29 1a
FIXUPS: 24c39 59 15 4c fe fffff1dc f c c 30 62 10 18 19 a4 12 8 b 7d d
FIXUPS: 2422d 7 f c e 58 11 f c 10 2d 11 c 50 2038c a fffdfcb9 fffff7a0
FIXUPS: 23b94 a 8 8 a 37 2e 2c 2a c 22 c 7 c c 8 e 27 c 8 c c 10 25 2a
FIXUPS: 446f7 a fffdf6f0 c 50 126 fffff48f 6 2a 11 c d f 20 34 42 30 4c
FIXUPS: 235d6 a 4b a 8 8 32 21040 c e c fffdf33e f 13 19 e 9a 19 c 32 23f9
FIXUPS: 25f6b 40 d 9 d1 d 9 13e 3c e 9 7e e 9 d4 1e3b4 fffde775 d9 1c8
FIXUPS: 231a1 28 26 18 20 f5 d 24 24 c b d fffdf21e 24 2405d 8 19 a 36
FIXUPS: 2669f 4c 94 1c 3c fffff286 1e 1d 31 95 2b 19 69 12 19 35 29 25
FIXUPS: 25cc0 cb 56 36 24 4b 7f fffdc327 417d8 16 b fffbe83f 34 1b 13 16
FIXUPS: 43a34 16 b fffbe8bf 2a 1e 2d 23 3c 1b 13 16 41638 16 b fffbe9df
FIXUPS: 2480 2c 49 1e 24 2c 24 fffff995 41a58 16 b fffbe5bf 34 1b 13 16
FIXUPS: 439a4 16 b fffbe63f 34 1b 13 16 41958 16 b fffbe6bf 1c 24 1c 24
FIXUPS: 2150 24 1c 24 34 1b 13 416b4 b fffbe37f 1c 24 34 1b 13 16 41bd8
FIXUPS: 438fa b fffbe43f 34 1b 13 16 41b58 16 b fffbe4bf 34 1b 13 16 41ad8
FIXUPS: 4395a b fffbe53f 34 1b 13 fffffa12 1b 13 16 41ef8 16 b fffbe11f
FIXUPS: 19b0 24 1c 20 20 20 24 1c 24 1c 24 34 1b 13 16 41d18 16 b fffbe2ff
FIXUPS: 1bd8 1b 13 16 41c98 fffbdd3c 24 1c 24 34 1b 13 16 420f8 16 b fffbdf1f
FIXUPS: 1738 1b 13 16 42078 16 b fffbdf9f 1c 24 34 1b 13 16 41fb8 16 b
FIXUPS: 18a4 1c 24 fffff9ac 24 1c 24 1c 24 1c 24 1c 24 18 20 20 20 3c 1b
FIXUPS: 1496 16 422b8 16 b fffbdd5f 1c 24 34 1b 13 16 421f8 16 b fffbde1f
FIXUPS: 2f98 13 c1 45 2d 25 38 7 17 38 37 11 4096b a fffbd4cc 1a 42711
FIXUPS: 43750 fffbd916 7f f d 10 3b 20 20 28 18 32 2b 27 24 1a60 d 13 d
FIXUPS: 2d14 d 13 d 86 10 10 10 f 40cee e e e e a fffbf300 f f 12 30 31
FIXUPS: 2ef3 2a 18 18 18 8 e fffffa80 b 8f f d 2d b 12 b 21 c 19 1e d 3a
FIXUPS: 2bbc 18 b 3a 15 18 18 18 1b 19 40dea e e e e 9 c fffc7fe5 11 3854d
FIXUPS: 4402e fffc7b6d c 1e ffff763c 30 45 1e d 10 15 a 16 25 a e 1b 14
FIXUPS: 43b67 a fffbeaf2 2b b 1c 2de 11 d 2d b 8def d c 4e 21 18 c 4d 4a
FIXUPS: b92f 1d c 3f c c 53 7 15 c 16 38584 8 8 8 8 8 8 8 8 a fffc7a71
FIXUPS: ba97 fffff803 e 34 c c c e d9 d d e 155 56 7 389c3 8 8 8 8 8 a
FIXUPS: b5e8 16 2d 18 fa d 1e f c 30 16 fffff796 11 14 f 12 12 b 46 2f
FIXUPS: b03e 3f d 1f 14 e 1c 12 1c 12 4d 34 1c 54 7 38d35 8 8 8 a fffc72e5
FIXUPS: b268 1e fffffa62 c 1e c c 16 16 16 13 c9 8 1b 17 12 56 7 38ff3
FIXUPS: 43eec 8 8 8 8 8 8 8 8 8 a fffc6fc6 7 2f d fffffa77 28 14 3948c
FIXUPS: aafd d 1f f c 1a d e c e 33 f d 33 1b 19 56 7 391ee 8 8 8 8 8 8
FIXUPS: 43ecc a fffc6e05 fffff4d4 1a 12 11 b 13 13 1a 12 11 ae 39b4f b
FIXUPS: 43e6d a fffc64e7 4a9 9 14 c 9 e 20 1e 13 2b 15 c 3f 2c 13 28 ffffe73c
FIXUPS: 924a 18 18 18 21 3f 32 64 311 1d0 14 18 18 2f 3f 33 3b 27 2d 1d
FIXUPS: 9b1b 14 3a308 a fffc5dfe 3f1 eb d 3a 28 11 ffffe1a8 22b 7 71 f
FIXUPS: 880f 23a f 171 14 18 18 2f 3f 32 34 15 a4 18 1f 4f 1e 15 3b f 14
FIXUPS: 8ebd 8a 74 15 12 12 ffffee39 53 1c 10 10 e a4 fe 2f f 20 14 14
FIXUPS: 43de7 b b b b b a fffc42fb 71 d 13 d b8 16 17 15 2a 15 1b fffff440
FIXUPS: 78cc 18 18 7 7 7 11 7 11 7 dc 38 25 25 2a 25 5b 67 1c 54 5c 28
FIXUPS: 7cd5 3c101 fffc3f46 14 14 66 12 11 2b ffffe6bb 27 2a fe 4a2 b4
FIXUPS: 43dc6 fffc309f 59 1d 1b 30 1b 35 35 2c 13 4f 36 8 27 d 1f 28 24
FIXUPS: 713a 27 24 27 2a 10a 401 ffffde63 6 24 24 27 24 27 2a fe 793 17
FIXUPS: 5ef8 1a f 13 22 12 12 26 6 24 24 27 24 27 2a fe 292 6 24 24 27
FIXUPS: 4c4d 14 3a 15 11 1d 10 c 43 8 34 30 4a 2c 13 4b 33 50 3f 41 81
FIXUPS: 502c 27 77 6 24 24 27 24 27 2a fe fffff65d 13 13 13 13 13 1b 1c
FIXUPS: 49b8 f c c c c c c c c c c 33 22 14 f 7 31 d 7 20 1a 88 73 fffff9ac
FIXUPS: 45f1 3e 3f775 a fffc08b3 43 53 23 13 13 13 13 13 13 13 13 13 13
FIXUPS: 47eb 33 16 16 1a 13 13 13 13 13 13 13 13 fffffabc 16 15 36 f 12
FIXUPS: 444c 36 b 10 10 d 7f b 14 20 19 3f783 8 8 9 b b b b b b b b a a
FIXUPS: 45d3 fffff9ec 19 15 15 10 2a 29 29 2a 29 28 29 d d 15 24 1c 1f
FIXUPS: 41df 1f 22 1f 1f 1f 22 1f 1f 32 35 1d 1d 1d fffff962 18 19 18 19
FIXUPS: 3d77 19 18 19 18 19 18 1e 15 d 15 15 15 15 15 15 15 d d 15 15 15
FIXUPS: 3f43 25 10 10 22 fffff9b9 18 18 10 10 10 10 10 c c 30 20 1a 24
FIXUPS: 3aa3 d 13 27 d 5c f 27 f 7 13 a af 17 19 18 19 18 fffffacb f 40496
FIXUPS: 43c5f e e e e e e e e e e e a fffbfaf0 12 12 12 12 12 12 12 12
FIXUPS: 3895 12 30 1a 2a 18 18 fffffd15 40524 b e e e e e e e e e e e e
FIXUPS: 43c41 fffbfa43 d 13 d 41 10 10 10 10 10 10 10 10 10 10 10 9357
FIXUPS: cb0a 12 12 14 12 141 ffff66ec 30 3a 22 d 9 3f 16 2d 18 27 42 12
FIXUPS: 3550 18 18 18 18 18 18 18 18 18 16 10 85a1 23 10 1d 5f 6a a6 8
FIXUPS: bdbe 45 d 21 12 12 e cd 2ca 14a 44 1ba 13 15 317 15 19 15 4b 33
FIXUPS: c98b 33 33 f7
